
========================================================================

** ELF Header Information

    File Name: G:\Desktop\APM32E10x_SDK_LCD\Examples\LCD\Project\MDK\Objects\LCD.axf

    Machine class: ELFCLASS32 (32-bit)
    Data encoding: ELFDATA2LSB (Little endian)
    Header version: EV_CURRENT (Current version)
    Operating System ABI: none
    ABI Version: 0
    File Type: ET_EXEC (Executable) (2)
    Machine: EM_ARM (ARM)

    Image Entry point: 0x08000145
    Flags: EF_ARM_HASENTRY + EF_ARM_ABI_FLOAT_SOFT (0x05000202)

    ARM ELF revision: 5 (ABI version 2)

    Conforms to Soft float procedure-call standard

    Built with
    Component: ARM Compiler 5.06 update 7 (build 960) Tool: armasm [4d35fa]
    Component: ARM Compiler 5.06 update 7 (build 960) Tool: armlink [4d3601]

    Header size: 52 bytes (0x34)
    Program header entry size: 32 bytes (0x20)
    Section header entry size: 40 bytes (0x28)

    Program header entries: 1
    Section header entries: 16

    Program header offset: 245856 (0x0003c060)
    Section header offset: 245888 (0x0003c080)

    Section header string table index: 15

========================================================================

** Program header #0 (PT_LOAD) [PF_X + PF_W + PF_R + PF_ARM_ENTRY]
    Size : 14464 bytes (12812 bytes in file)
    Virtual address: 0x08000000 (Alignment 8)


========================================================================

** Section #1 'ER_IROM1' (SHT_PROGBITS) [SHF_ALLOC + SHF_EXECINSTR]
    Size   : 12800 bytes (alignment 4)
    Address: 0x08000000

    $d.realdata
    RESET
    __Vectors
        0x08000000:    20000680    ...     DCD    536872576
        0x08000004:    080001e9    ....    DCD    134218217
        0x08000008:    08000dc1    ....    DCD    134221249
        0x0800000c:    0800063f    ?...    DCD    134219327
        0x08000010:    08000dbd    ....    DCD    134221245
        0x08000014:    08000597    ....    DCD    134219159
        0x08000018:    080017b9    ....    DCD    134223801
        0x0800001c:    00000000    ....    DCD    0
        0x08000020:    00000000    ....    DCD    0
        0x08000024:    00000000    ....    DCD    0
        0x08000028:    00000000    ....    DCD    0
        0x0800002c:    08001647    G...    DCD    134223431
        0x08000030:    0800059b    ....    DCD    134219163
        0x08000034:    00000000    ....    DCD    0
        0x08000038:    08000dc3    ....    DCD    134221251
        0x0800003c:    08001671    q...    DCD    134223473
        0x08000040:    08000203    ....    DCD    134218243
        0x08000044:    08000203    ....    DCD    134218243
        0x08000048:    08000203    ....    DCD    134218243
        0x0800004c:    08000203    ....    DCD    134218243
        0x08000050:    08000203    ....    DCD    134218243
        0x08000054:    08000203    ....    DCD    134218243
        0x08000058:    08000203    ....    DCD    134218243
        0x0800005c:    08000203    ....    DCD    134218243
        0x08000060:    08000203    ....    DCD    134218243
        0x08000064:    08000203    ....    DCD    134218243
        0x08000068:    08000203    ....    DCD    134218243
        0x0800006c:    08000203    ....    DCD    134218243
        0x08000070:    08000203    ....    DCD    134218243
        0x08000074:    08000203    ....    DCD    134218243
        0x08000078:    08000203    ....    DCD    134218243
        0x0800007c:    08000203    ....    DCD    134218243
        0x08000080:    08000203    ....    DCD    134218243
        0x08000084:    08000203    ....    DCD    134218243
        0x08000088:    08000203    ....    DCD    134218243
        0x0800008c:    08000203    ....    DCD    134218243
        0x08000090:    08000203    ....    DCD    134218243
        0x08000094:    08000203    ....    DCD    134218243
        0x08000098:    08000203    ....    DCD    134218243
        0x0800009c:    08000203    ....    DCD    134218243
        0x080000a0:    08000203    ....    DCD    134218243
        0x080000a4:    08000203    ....    DCD    134218243
        0x080000a8:    08000203    ....    DCD    134218243
        0x080000ac:    08000203    ....    DCD    134218243
        0x080000b0:    08000203    ....    DCD    134218243
        0x080000b4:    08000203    ....    DCD    134218243
        0x080000b8:    08000203    ....    DCD    134218243
        0x080000bc:    08000203    ....    DCD    134218243
        0x080000c0:    08000203    ....    DCD    134218243
        0x080000c4:    08000203    ....    DCD    134218243
        0x080000c8:    08000203    ....    DCD    134218243
        0x080000cc:    08000203    ....    DCD    134218243
        0x080000d0:    08000203    ....    DCD    134218243
        0x080000d4:    08000203    ....    DCD    134218243
        0x080000d8:    08000203    ....    DCD    134218243
        0x080000dc:    08000203    ....    DCD    134218243
        0x080000e0:    08000203    ....    DCD    134218243
        0x080000e4:    08000203    ....    DCD    134218243
        0x080000e8:    08000203    ....    DCD    134218243
        0x080000ec:    08000203    ....    DCD    134218243
        0x080000f0:    08000203    ....    DCD    134218243
        0x080000f4:    08000203    ....    DCD    134218243
        0x080000f8:    08000203    ....    DCD    134218243
        0x080000fc:    08000203    ....    DCD    134218243
        0x08000100:    08000203    ....    DCD    134218243
        0x08000104:    08000203    ....    DCD    134218243
        0x08000108:    08000203    ....    DCD    134218243
        0x0800010c:    08000203    ....    DCD    134218243
        0x08000110:    08000203    ....    DCD    134218243
        0x08000114:    08000203    ....    DCD    134218243
        0x08000118:    08000203    ....    DCD    134218243
        0x0800011c:    08000203    ....    DCD    134218243
        0x08000120:    08000203    ....    DCD    134218243
        0x08000124:    08000203    ....    DCD    134218243
        0x08000128:    08000203    ....    DCD    134218243
        0x0800012c:    08000203    ....    DCD    134218243
        0x08000130:    00000000    ....    DCD    0
        0x08000134:    08000203    ....    DCD    134218243
        0x08000138:    08000203    ....    DCD    134218243
        0x0800013c:    08000203    ....    DCD    134218243
        0x08000140:    08000203    ....    DCD    134218243
    $t
    !!!main
    __Vectors_End
    __main
        0x08000144:    f000f802    ....    BL       __scatterload ; 0x800014c
        0x08000148:    f000f83f    ..?.    BL       __rt_entry ; 0x80001ca
    !!!scatter
    __scatterload
    __scatterload_rt2
    __scatterload_rt2_thumb_only
        0x0800014c:    a00a        ..      ADR      r0,{pc}+0x2c ; 0x8000178
        0x0800014e:    e8900c00    ....    LDM      r0,{r10,r11}
        0x08000152:    4482        .D      ADD      r10,r10,r0
        0x08000154:    4483        .D      ADD      r11,r11,r0
        0x08000156:    f1aa0701    ....    SUB      r7,r10,#1
    __scatterload_null
        0x0800015a:    45da        .E      CMP      r10,r11
        0x0800015c:    d101        ..      BNE      0x8000162 ; __scatterload_null + 8
        0x0800015e:    f000f834    ..4.    BL       __rt_entry ; 0x80001ca
        0x08000162:    f2af0e09    ....    ADR      lr,{pc}-7 ; 0x800015b
        0x08000166:    e8ba000f    ....    LDM      r10!,{r0-r3}
        0x0800016a:    f0130f01    ....    TST      r3,#1
        0x0800016e:    bf18        ..      IT       NE
        0x08000170:    1afb        ..      SUBNE    r3,r7,r3
        0x08000172:    f0430301    C...    ORR      r3,r3,#1
        0x08000176:    4718        .G      BX       r3
    $d
        0x08000178:    00003068    h0..    DCD    12392
        0x0800017c:    00003088    .0..    DCD    12424
    $t
    !!handler_copy
    __scatterload_copy
        0x08000180:    3a10        .:      SUBS     r2,r2,#0x10
        0x08000182:    bf24        $.      ITT      CS
        0x08000184:    c878        x.      LDMCS    r0!,{r3-r6}
        0x08000186:    c178        x.      STMCS    r1!,{r3-r6}
        0x08000188:    d8fa        ..      BHI      __scatterload_copy ; 0x8000180
        0x0800018a:    0752        R.      LSLS     r2,r2,#29
        0x0800018c:    bf24        $.      ITT      CS
        0x0800018e:    c830        0.      LDMCS    r0!,{r4,r5}
        0x08000190:    c130        0.      STMCS    r1!,{r4,r5}
        0x08000192:    bf44        D.      ITT      MI
        0x08000194:    6804        .h      LDRMI    r4,[r0,#0]
        0x08000196:    600c        .`      STRMI    r4,[r1,#0]
        0x08000198:    4770        pG      BX       lr
        0x0800019a:    0000        ..      MOVS     r0,r0
    !!handler_zi
    __scatterload_zeroinit
        0x0800019c:    2300        .#      MOVS     r3,#0
        0x0800019e:    2400        .$      MOVS     r4,#0
        0x080001a0:    2500        .%      MOVS     r5,#0
        0x080001a2:    2600        .&      MOVS     r6,#0
        0x080001a4:    3a10        .:      SUBS     r2,r2,#0x10
        0x080001a6:    bf28        (.      IT       CS
        0x080001a8:    c178        x.      STMCS    r1!,{r3-r6}
        0x080001aa:    d8fb        ..      BHI      0x80001a4 ; __scatterload_zeroinit + 8
        0x080001ac:    0752        R.      LSLS     r2,r2,#29
        0x080001ae:    bf28        (.      IT       CS
        0x080001b0:    c130        0.      STMCS    r1!,{r4,r5}
        0x080001b2:    bf48        H.      IT       MI
        0x080001b4:    600b        .`      STRMI    r3,[r1,#0]
        0x080001b6:    4770        pG      BX       lr
    .ARM.Collect$$_printf_percent$$0000000C
    .ARM.Collect$$_printf_percent$$00000000
    _printf_percent
    _printf_x
        0x080001b8:    2978        x)      CMP      r1,#0x78
        0x080001ba:    f0008071    ..q.    BEQ.W    _printf_int_hex ; 0x80002a0
    .ARM.Collect$$_printf_percent$$00000017
    _printf_percent_end
        0x080001be:    2000        .       MOVS     r0,#0
        0x080001c0:    4770        pG      BX       lr
    .ARM.Collect$$libinit$$00000000
    __rt_lib_init
        0x080001c2:    b51f        ..      PUSH     {r0-r4,lr}
    .ARM.Collect$$libinit$$00000002
    .ARM.Collect$$libinit$$00000004
    .ARM.Collect$$libinit$$0000000A
    .ARM.Collect$$libinit$$0000000C
    .ARM.Collect$$libinit$$0000000E
    .ARM.Collect$$libinit$$00000011
    .ARM.Collect$$libinit$$00000013
    .ARM.Collect$$libinit$$00000015
    .ARM.Collect$$libinit$$00000017
    .ARM.Collect$$libinit$$00000019
    .ARM.Collect$$libinit$$0000001B
    .ARM.Collect$$libinit$$0000001D
    .ARM.Collect$$libinit$$0000001F
    .ARM.Collect$$libinit$$00000021
    .ARM.Collect$$libinit$$00000023
    .ARM.Collect$$libinit$$00000025
    .ARM.Collect$$libinit$$0000002C
    .ARM.Collect$$libinit$$0000002E
    .ARM.Collect$$libinit$$00000030
    .ARM.Collect$$libinit$$00000032
    .ARM.Collect$$libinit$$00000033
    __rt_lib_init_alloca_1
    __rt_lib_init_argv_1
    __rt_lib_init_atexit_1
    __rt_lib_init_clock_1
    __rt_lib_init_cpp_1
    __rt_lib_init_exceptions_1
    __rt_lib_init_fp_1
    __rt_lib_init_fp_trap_1
    __rt_lib_init_getenv_1
    __rt_lib_init_heap_1
    __rt_lib_init_lc_collate_1
    __rt_lib_init_lc_ctype_1
    __rt_lib_init_lc_monetary_1
    __rt_lib_init_lc_numeric_1
    __rt_lib_init_lc_time_1
    __rt_lib_init_preinit_1
    __rt_lib_init_rand_1
    __rt_lib_init_return
    __rt_lib_init_signal_1
    __rt_lib_init_stdio_1
    __rt_lib_init_user_alloc_1
        0x080001c4:    bd1f        ..      POP      {r0-r4,pc}
    .ARM.Collect$$libshutdown$$00000000
    __rt_lib_shutdown
        0x080001c6:    b510        ..      PUSH     {r4,lr}
    .ARM.Collect$$libshutdown$$00000002
    .ARM.Collect$$libshutdown$$00000004
    .ARM.Collect$$libshutdown$$00000006
    .ARM.Collect$$libshutdown$$00000009
    .ARM.Collect$$libshutdown$$0000000C
    .ARM.Collect$$libshutdown$$0000000E
    .ARM.Collect$$libshutdown$$00000011
    .ARM.Collect$$libshutdown$$00000012
    __rt_lib_shutdown_cpp_1
    __rt_lib_shutdown_fini_1
    __rt_lib_shutdown_fp_trap_1
    __rt_lib_shutdown_heap_1
    __rt_lib_shutdown_return
    __rt_lib_shutdown_signal_1
    __rt_lib_shutdown_stdio_1
    __rt_lib_shutdown_user_alloc_1
        0x080001c8:    bd10        ..      POP      {r4,pc}
    .ARM.Collect$$rtentry$$00000000
    .ARM.Collect$$rtentry$$00000002
    .ARM.Collect$$rtentry$$00000004
    __rt_entry
    __rt_entry_presh_1
    __rt_entry_sh
        0x080001ca:    f000f9aa    ....    BL       __user_setup_stackheap ; 0x8000522
        0x080001ce:    4611        .F      MOV      r1,r2
    .ARM.Collect$$rtentry$$00000009
    .ARM.Collect$$rtentry$$0000000A
    __rt_entry_li
    __rt_entry_postsh_1
        0x080001d0:    f7fffff7    ....    BL       __rt_lib_init ; 0x80001c2
    .ARM.Collect$$rtentry$$0000000C
    .ARM.Collect$$rtentry$$0000000D
    __rt_entry_main
    __rt_entry_postli_1
        0x080001d4:    f001fb40    ..@.    BL       main ; 0x8001858
        0x080001d8:    f000f9c8    ....    BL       exit ; 0x800056c
    .ARM.Collect$$rtexit$$00000000
    __rt_exit
        0x080001dc:    b403        ..      PUSH     {r0,r1}
    .ARM.Collect$$rtexit$$00000002
    .ARM.Collect$$rtexit$$00000003
    __rt_exit_ls
    __rt_exit_prels_1
        0x080001de:    f7fffff2    ....    BL       __rt_lib_shutdown ; 0x80001c6
    .ARM.Collect$$rtexit$$00000004
    __rt_exit_exit
        0x080001e2:    bc03        ..      POP      {r0,r1}
        0x080001e4:    f000f9d0    ....    BL       _sys_exit ; 0x8000588
    .text
    Reset_Handler
        0x080001e8:    4809        .H      LDR      r0,[pc,#36] ; [0x8000210] = 0x8001759
        0x080001ea:    4780        .G      BLX      r0
        0x080001ec:    4809        .H      LDR      r0,[pc,#36] ; [0x8000214] = 0x8000145
        0x080001ee:    4700        .G      BX       r0
        0x080001f0:    e7fe        ..      B        0x80001f0 ; Reset_Handler + 8
        0x080001f2:    e7fe        ..      B        0x80001f2 ; Reset_Handler + 10
        0x080001f4:    e7fe        ..      B        0x80001f4 ; Reset_Handler + 12
        0x080001f6:    e7fe        ..      B        0x80001f6 ; Reset_Handler + 14
        0x080001f8:    e7fe        ..      B        0x80001f8 ; Reset_Handler + 16
        0x080001fa:    e7fe        ..      B        0x80001fa ; Reset_Handler + 18
        0x080001fc:    e7fe        ..      B        0x80001fc ; Reset_Handler + 20
        0x080001fe:    e7fe        ..      B        0x80001fe ; Reset_Handler + 22
        0x08000200:    e7fe        ..      B        0x8000200 ; Reset_Handler + 24
    ADC1_2_IRQHandler
    ADC3_IRQHandler
    CAN1_RX1_IRQHandler
    CAN1_SCE_IRQHandler
    CAN2_RX1_IRQHandler
    CAN2_SCE_IRQHandler
    DMA1_Channel1_IRQHandler
    DMA1_Channel2_IRQHandler
    DMA1_Channel3_IRQHandler
    DMA1_Channel4_IRQHandler
    DMA1_Channel5_IRQHandler
    DMA1_Channel6_IRQHandler
    DMA1_Channel7_IRQHandler
    DMA2_Channel1_IRQHandler
    DMA2_Channel2_IRQHandler
    DMA2_Channel3_IRQHandler
    DMA2_Channel4_5_IRQHandler
    EINT0_IRQHandler
    EINT15_10_IRQHandler
    EINT1_IRQHandler
    EINT2_IRQHandler
    EINT3_IRQHandler
    EINT4_IRQHandler
    EINT9_5_IRQHandler
    EMMC_IRQHandler
    FLASH_IRQHandler
    I2C1_ER_IRQHandler
    I2C1_EV_IRQHandler
    I2C2_ER_IRQHandler
    I2C2_EV_IRQHandler
    PVD_IRQHandler
    RCM_IRQHandler
    RTCAlarm_IRQHandler
    RTC_IRQHandler
    SDIO_IRQHandler
    SPI1_IRQHandler
    SPI2_IRQHandler
    SPI3_IRQHandler
    TAMPER_IRQHandler
    TMR1_BRK_IRQHandler
    TMR1_CC_IRQHandler
    TMR1_TRG_COM_IRQHandler
    TMR1_UP_IRQHandler
    TMR2_IRQHandler
    TMR3_IRQHandler
    TMR4_IRQHandler
    TMR5_IRQHandler
    TMR6_IRQHandler
    TMR7_IRQHandler
    TMR8_BRK_IRQHandler
    TMR8_CC_IRQHandler
    TMR8_TRG_COM_IRQHandler
    TMR8_UP_IRQHandler
    UART4_IRQHandler
    UART5_IRQHandler
    USART1_IRQHandler
    USART2_IRQHandler
    USART3_IRQHandler
    USBD1_HP_CAN1_TX_IRQHandler
    USBD1_LP_CAN1_RX0_IRQHandler
    USBD2_HP_CAN2_TX_IRQHandler
    USBD2_LP_CAN2_RX0_IRQHandler
    USBDWakeUp_IRQHandler
    WWDT_IRQHandler
        0x08000202:    e7fe        ..      B        ADC1_2_IRQHandler ; 0x8000202
    __user_initial_stackheap
        0x08000204:    4804        .H      LDR      r0,[pc,#16] ; [0x8000218] = 0x20000080
        0x08000206:    4905        .I      LDR      r1,[pc,#20] ; [0x800021c] = 0x20000680
        0x08000208:    4a05        .J      LDR      r2,[pc,#20] ; [0x8000220] = 0x20000280
        0x0800020a:    4b06        .K      LDR      r3,[pc,#24] ; [0x8000224] = 0x20000280
        0x0800020c:    4770        pG      BX       lr
    $d
        0x0800020e:    0000        ..      DCW    0
        0x08000210:    08001759    Y...    DCD    134223705
        0x08000214:    08000145    E...    DCD    134218053
        0x08000218:    20000080    ...     DCD    536871040
        0x0800021c:    20000680    ...     DCD    536872576
        0x08000220:    20000280    ...     DCD    536871552
        0x08000224:    20000280    ...     DCD    536871552
    $t
    .text
    __2sprintf
        0x08000228:    b40f        ..      PUSH     {r0-r3}
        0x0800022a:    b51c        ..      PUSH     {r2-r4,lr}
        0x0800022c:    4b07        .K      LDR      r3,[pc,#28] ; [0x800024c] = 0x2e5
        0x0800022e:    aa06        ..      ADD      r2,sp,#0x18
        0x08000230:    447b        {D      ADD      r3,r3,pc
        0x08000232:    4669        iF      MOV      r1,sp
        0x08000234:    9000        ..      STR      r0,[sp,#0]
        0x08000236:    9805        ..      LDR      r0,[sp,#0x14]
        0x08000238:    f000f95b    ..[.    BL       _printf_char_common ; 0x80004f2
        0x0800023c:    2000        .       MOVS     r0,#0
        0x0800023e:    4669        iF      MOV      r1,sp
        0x08000240:    f000f96a    ..j.    BL       _sputc ; 0x8000518
        0x08000244:    bc1c        ..      POP      {r2-r4}
        0x08000246:    f85dfb14    ]...    LDR      pc,[sp],#0x14
    $d
        0x0800024a:    0000        ..      DCW    0
        0x0800024c:    000002e5    ....    DCD    741
    $t
    .text
    _printf_pre_padding
        0x08000250:    b570        p.      PUSH     {r4-r6,lr}
        0x08000252:    4604        .F      MOV      r4,r0
        0x08000254:    6985        .i      LDR      r5,[r0,#0x18]
        0x08000256:    6800        .h      LDR      r0,[r0,#0]
        0x08000258:    06c1        ..      LSLS     r1,r0,#27
        0x0800025a:    d501        ..      BPL      0x8000260 ; _printf_pre_padding + 16
        0x0800025c:    2630        0&      MOVS     r6,#0x30
        0x0800025e:    e000        ..      B        0x8000262 ; _printf_pre_padding + 18
        0x08000260:    2620         &      MOVS     r6,#0x20
        0x08000262:    07c0        ..      LSLS     r0,r0,#31
        0x08000264:    d007        ..      BEQ      0x8000276 ; _printf_pre_padding + 38
        0x08000266:    bd70        p.      POP      {r4-r6,pc}
        0x08000268:    e9d42101    ...!    LDRD     r2,r1,[r4,#4]
        0x0800026c:    4630        0F      MOV      r0,r6
        0x0800026e:    4790        .G      BLX      r2
        0x08000270:    6a20         j      LDR      r0,[r4,#0x20]
        0x08000272:    1c40        @.      ADDS     r0,r0,#1
        0x08000274:    6220         b      STR      r0,[r4,#0x20]
        0x08000276:    1e6d        m.      SUBS     r5,r5,#1
        0x08000278:    d5f6        ..      BPL      0x8000268 ; _printf_pre_padding + 24
        0x0800027a:    bd70        p.      POP      {r4-r6,pc}
    _printf_post_padding
        0x0800027c:    b570        p.      PUSH     {r4-r6,lr}
        0x0800027e:    4604        .F      MOV      r4,r0
        0x08000280:    6985        .i      LDR      r5,[r0,#0x18]
        0x08000282:    7800        .x      LDRB     r0,[r0,#0]
        0x08000284:    07c0        ..      LSLS     r0,r0,#31
        0x08000286:    d107        ..      BNE      0x8000298 ; _printf_post_padding + 28
        0x08000288:    bd70        p.      POP      {r4-r6,pc}
        0x0800028a:    e9d42101    ...!    LDRD     r2,r1,[r4,#4]
        0x0800028e:    2020                MOVS     r0,#0x20
        0x08000290:    4790        .G      BLX      r2
        0x08000292:    6a20         j      LDR      r0,[r4,#0x20]
        0x08000294:    1c40        @.      ADDS     r0,r0,#1
        0x08000296:    6220         b      STR      r0,[r4,#0x20]
        0x08000298:    1e6d        m.      SUBS     r5,r5,#1
        0x0800029a:    d5f6        ..      BPL      0x800028a ; _printf_post_padding + 14
        0x0800029c:    bd70        p.      POP      {r4-r6,pc}
        0x0800029e:    0000        ..      MOVS     r0,r0
    .text
    _printf_int_hex
    _printf_longlong_hex
        0x080002a0:    b570        p.      PUSH     {r4-r6,lr}
        0x080002a2:    4604        .F      MOV      r4,r0
        0x080002a4:    460d        .F      MOV      r5,r1
        0x080002a6:    4621        !F      MOV      r1,r4
        0x080002a8:    6810        .h      LDR      r0,[r2,#0]
        0x080002aa:    f3af8000    ....    NOP.W    
        0x080002ae:    8821        !.      LDRH     r1,[r4,#0]
        0x080002b0:    0509        ..      LSLS     r1,r1,#20
        0x080002b2:    d502        ..      BPL      0x80002ba ; _printf_int_hex + 26
        0x080002b4:    4a0f        .J      LDR      r2,[pc,#60] ; [0x80002f4] = 0x2eea
        0x080002b6:    447a        zD      ADD      r2,r2,pc
        0x080002b8:    e002        ..      B        0x80002c0 ; _printf_int_hex + 32
        0x080002ba:    4a0e        .J      LDR      r2,[pc,#56] ; [0x80002f4] = 0x2eea
        0x080002bc:    447a        zD      ADD      r2,r2,pc
        0x080002be:    320e        .2      ADDS     r2,r2,#0xe
        0x080002c0:    2100        .!      MOVS     r1,#0
        0x080002c2:    f1040324    ..$.    ADD      r3,r4,#0x24
        0x080002c6:    e005        ..      B        0x80002d4 ; _printf_int_hex + 52
        0x080002c8:    f000060f    ....    AND      r6,r0,#0xf
        0x080002cc:    0900        ..      LSRS     r0,r0,#4
        0x080002ce:    5d96        .]      LDRB     r6,[r2,r6]
        0x080002d0:    545e        ^T      STRB     r6,[r3,r1]
        0x080002d2:    1c49        I.      ADDS     r1,r1,#1
        0x080002d4:    2800        .(      CMP      r0,#0
        0x080002d6:    d1f7        ..      BNE      0x80002c8 ; _printf_int_hex + 40
        0x080002d8:    7820         x      LDRB     r0,[r4,#0]
        0x080002da:    2300        .#      MOVS     r3,#0
        0x080002dc:    0700        ..      LSLS     r0,r0,#28
        0x080002de:    d504        ..      BPL      0x80002ea ; _printf_int_hex + 74
        0x080002e0:    2d70        p-      CMP      r5,#0x70
        0x080002e2:    d002        ..      BEQ      0x80002ea ; _printf_int_hex + 74
        0x080002e4:    b109        ..      CBZ      r1,0x80002ea ; _printf_int_hex + 74
        0x080002e6:    2302        .#      MOVS     r3,#2
        0x080002e8:    3211        .2      ADDS     r2,r2,#0x11
        0x080002ea:    4620         F      MOV      r0,r4
        0x080002ec:    e8bd4070    ..p@    POP      {r4-r6,lr}
        0x080002f0:    f000b8a1    ....    B.W      _printf_int_common ; 0x8000436
    $d
        0x080002f4:    00002eea    ....    DCD    12010
    $t
    .text
    __printf
        0x080002f8:    e92d5ff0    -.._    PUSH     {r4-r12,lr}
        0x080002fc:    4689        .F      MOV      r9,r1
        0x080002fe:    4604        .F      MOV      r4,r0
        0x08000300:    f04f0a00    O...    MOV      r10,#0
        0x08000304:    f8dfb124    ..$.    LDR      r11,[pc,#292] ; [0x800042c] = 0x2ec0
        0x08000308:    44fb        .D      ADD      r11,r11,pc
        0x0800030a:    f8c0a020    .. .    STR      r10,[r0,#0x20]
        0x0800030e:    4620         F      MOV      r0,r4
        0x08000310:    68e1        .h      LDR      r1,[r4,#0xc]
        0x08000312:    4788        .G      BLX      r1
        0x08000314:    2800        .(      CMP      r0,#0
        0x08000316:    d07d        }.      BEQ      0x8000414 ; __printf + 284
        0x08000318:    2825        %(      CMP      r0,#0x25
        0x0800031a:    d006        ..      BEQ      0x800032a ; __printf + 50
        0x0800031c:    e9d42101    ...!    LDRD     r2,r1,[r4,#4]
        0x08000320:    4790        .G      BLX      r2
        0x08000322:    6a20         j      LDR      r0,[r4,#0x20]
        0x08000324:    1c40        @.      ADDS     r0,r0,#1
        0x08000326:    6220         b      STR      r0,[r4,#0x20]
        0x08000328:    e7f1        ..      B        0x800030e ; __printf + 22
        0x0800032a:    2500        .%      MOVS     r5,#0
        0x0800032c:    465f        _F      MOV      r7,r11
        0x0800032e:    4620         F      MOV      r0,r4
        0x08000330:    68e1        .h      LDR      r1,[r4,#0xc]
        0x08000332:    4788        .G      BLX      r1
        0x08000334:    2820         (      CMP      r0,#0x20
        0x08000336:    4606        .F      MOV      r6,r0
        0x08000338:    db07        ..      BLT      0x800034a ; __printf + 82
        0x0800033a:    2e31        1.      CMP      r6,#0x31
        0x0800033c:    d205        ..      BCS      0x800034a ; __printf + 82
        0x0800033e:    19b8        ..      ADDS     r0,r7,r6
        0x08000340:    f8100c20    .. .    LDRB     r0,[r0,#-0x20]
        0x08000344:    b108        ..      CBZ      r0,0x800034a ; __printf + 82
        0x08000346:    4305        .C      ORRS     r5,r5,r0
        0x08000348:    e7f1        ..      B        0x800032e ; __printf + 54
        0x0800034a:    07a8        ..      LSLS     r0,r5,#30
        0x0800034c:    d501        ..      BPL      0x8000352 ; __printf + 90
        0x0800034e:    f0250504    %...    BIC      r5,r5,#4
        0x08000352:    f8c4a01c    ....    STR      r10,[r4,#0x1c]
        0x08000356:    2700        .'      MOVS     r7,#0
        0x08000358:    f8c4a018    ....    STR      r10,[r4,#0x18]
        0x0800035c:    2e2a        *.      CMP      r6,#0x2a
        0x0800035e:    d009        ..      BEQ      0x8000374 ; __printf + 124
        0x08000360:    4630        0F      MOV      r0,r6
        0x08000362:    f001fa2b    ..+.    BL       _is_digit ; 0x80017bc
        0x08000366:    b338        8.      CBZ      r0,0x80003b8 ; __printf + 192
        0x08000368:    eb040887    ....    ADD      r8,r4,r7,LSL #2
        0x0800036c:    3e30        0>      SUBS     r6,r6,#0x30
        0x0800036e:    f8c86018    ...`    STR      r6,[r8,#0x18]
        0x08000372:    e019        ..      B        0x80003a8 ; __printf + 176
        0x08000374:    f8591b04    Y...    LDR      r1,[r9],#4
        0x08000378:    4620         F      MOV      r0,r4
        0x0800037a:    eb040287    ....    ADD      r2,r4,r7,LSL #2
        0x0800037e:    6191        .a      STR      r1,[r2,#0x18]
        0x08000380:    68e1        .h      LDR      r1,[r4,#0xc]
        0x08000382:    4788        .G      BLX      r1
        0x08000384:    2f01        ./      CMP      r7,#1
        0x08000386:    4606        .F      MOV      r6,r0
        0x08000388:    d118        ..      BNE      0x80003bc ; __printf + 196
        0x0800038a:    69e0        .i      LDR      r0,[r4,#0x1c]
        0x0800038c:    2800        .(      CMP      r0,#0
        0x0800038e:    da20         .      BGE      0x80003d2 ; __printf + 218
        0x08000390:    f0250520    %. .    BIC      r5,r5,#0x20
        0x08000394:    e01d        ..      B        0x80003d2 ; __printf + 218
        0x08000396:    f8d80018    ....    LDR      r0,[r8,#0x18]
        0x0800039a:    eb000080    ....    ADD      r0,r0,r0,LSL #2
        0x0800039e:    eb060040    ..@.    ADD      r0,r6,r0,LSL #1
        0x080003a2:    3830        08      SUBS     r0,r0,#0x30
        0x080003a4:    f8c80018    ....    STR      r0,[r8,#0x18]
        0x080003a8:    4620         F      MOV      r0,r4
        0x080003aa:    68e1        .h      LDR      r1,[r4,#0xc]
        0x080003ac:    4788        .G      BLX      r1
        0x080003ae:    4606        .F      MOV      r6,r0
        0x080003b0:    f001fa04    ....    BL       _is_digit ; 0x80017bc
        0x080003b4:    2800        .(      CMP      r0,#0
        0x080003b6:    d1ee        ..      BNE      0x8000396 ; __printf + 158
        0x080003b8:    2f01        ./      CMP      r7,#1
        0x080003ba:    d00a        ..      BEQ      0x80003d2 ; __printf + 218
        0x080003bc:    2e2e        ..      CMP      r6,#0x2e
        0x080003be:    d108        ..      BNE      0x80003d2 ; __printf + 218
        0x080003c0:    4620         F      MOV      r0,r4
        0x080003c2:    68e1        .h      LDR      r1,[r4,#0xc]
        0x080003c4:    4788        .G      BLX      r1
        0x080003c6:    1c7f        ..      ADDS     r7,r7,#1
        0x080003c8:    4606        .F      MOV      r6,r0
        0x080003ca:    2f02        ./      CMP      r7,#2
        0x080003cc:    f0450520    E. .    ORR      r5,r5,#0x20
        0x080003d0:    dbc4        ..      BLT      0x800035c ; __printf + 100
        0x080003d2:    69a0        .i      LDR      r0,[r4,#0x18]
        0x080003d4:    2800        .(      CMP      r0,#0
        0x080003d6:    da03        ..      BGE      0x80003e0 ; __printf + 232
        0x080003d8:    4240        @B      RSBS     r0,r0,#0
        0x080003da:    f0450501    E...    ORR      r5,r5,#1
        0x080003de:    61a0        .a      STR      r0,[r4,#0x18]
        0x080003e0:    07e8        ..      LSLS     r0,r5,#31
        0x080003e2:    d001        ..      BEQ      0x80003e8 ; __printf + 240
        0x080003e4:    f0250510    %...    BIC      r5,r5,#0x10
        0x080003e8:    b1a6        ..      CBZ      r6,0x8000414 ; __printf + 284
        0x080003ea:    f1a60041    ..A.    SUB      r0,r6,#0x41
        0x080003ee:    2819        .(      CMP      r0,#0x19
        0x080003f0:    d802        ..      BHI      0x80003f8 ; __printf + 256
        0x080003f2:    3620         6      ADDS     r6,r6,#0x20
        0x080003f4:    f4456500    E..e    ORR      r5,r5,#0x800
        0x080003f8:    464a        JF      MOV      r2,r9
        0x080003fa:    4631        1F      MOV      r1,r6
        0x080003fc:    4620         F      MOV      r0,r4
        0x080003fe:    6025        %`      STR      r5,[r4,#0]
        0x08000400:    464d        MF      MOV      r5,r9
        0x08000402:    f7fffed9    ....    BL       _printf_percent ; 0x80001b8
        0x08000406:    b160        `.      CBZ      r0,0x8000422 ; __printf + 298
        0x08000408:    2801        .(      CMP      r0,#1
        0x0800040a:    d007        ..      BEQ      0x800041c ; __printf + 292
        0x0800040c:    1ded        ..      ADDS     r5,r5,#7
        0x0800040e:    f0250007    %...    BIC      r0,r5,#7
        0x08000412:    e000        ..      B        0x8000416 ; __printf + 286
        0x08000414:    e007        ..      B        0x8000426 ; __printf + 302
        0x08000416:    f1000908    ....    ADD      r9,r0,#8
        0x0800041a:    e778        x.      B        0x800030e ; __printf + 22
        0x0800041c:    f1050904    ....    ADD      r9,r5,#4
        0x08000420:    e775        u.      B        0x800030e ; __printf + 22
        0x08000422:    4630        0F      MOV      r0,r6
        0x08000424:    e77a        z.      B        0x800031c ; __printf + 36
        0x08000426:    6a20         j      LDR      r0,[r4,#0x20]
        0x08000428:    e8bd9ff0    ....    POP      {r4-r12,pc}
    $d
        0x0800042c:    00002ec0    ....    DCD    11968
    $t
    .text
    __use_two_region_memory
        0x08000430:    4770        pG      BX       lr
    __rt_heap_escrow$2region
        0x08000432:    4770        pG      BX       lr
    __rt_heap_expand$2region
        0x08000434:    4770        pG      BX       lr
    .text
    _printf_int_common
        0x08000436:    e92d47f0    -..G    PUSH     {r4-r10,lr}
        0x0800043a:    460d        .F      MOV      r5,r1
        0x0800043c:    4699        .F      MOV      r9,r3
        0x0800043e:    4692        .F      MOV      r10,r2
        0x08000440:    4604        .F      MOV      r4,r0
        0x08000442:    f1000824    ..$.    ADD      r8,r0,#0x24
        0x08000446:    6801        .h      LDR      r1,[r0,#0]
        0x08000448:    0688        ..      LSLS     r0,r1,#26
        0x0800044a:    d504        ..      BPL      0x8000456 ; _printf_int_common + 32
        0x0800044c:    69e0        .i      LDR      r0,[r4,#0x1c]
        0x0800044e:    f0210110    !...    BIC      r1,r1,#0x10
        0x08000452:    6021        !`      STR      r1,[r4,#0]
        0x08000454:    e000        ..      B        0x8000458 ; _printf_int_common + 34
        0x08000456:    2001        .       MOVS     r0,#1
        0x08000458:    42a8        .B      CMP      r0,r5
        0x0800045a:    dd01        ..      BLE      0x8000460 ; _printf_int_common + 42
        0x0800045c:    1b47        G.      SUBS     r7,r0,r5
        0x0800045e:    e000        ..      B        0x8000462 ; _printf_int_common + 44
        0x08000460:    2700        .'      MOVS     r7,#0
        0x08000462:    69a1        .i      LDR      r1,[r4,#0x18]
        0x08000464:    197a        z.      ADDS     r2,r7,r5
        0x08000466:    eb020009    ....    ADD      r0,r2,r9
        0x0800046a:    1a08        ..      SUBS     r0,r1,r0
        0x0800046c:    61a0        .a      STR      r0,[r4,#0x18]
        0x0800046e:    7820         x      LDRB     r0,[r4,#0]
        0x08000470:    06c0        ..      LSLS     r0,r0,#27
        0x08000472:    d402        ..      BMI      0x800047a ; _printf_int_common + 68
        0x08000474:    4620         F      MOV      r0,r4
        0x08000476:    f7fffeeb    ....    BL       _printf_pre_padding ; 0x8000250
        0x0800047a:    2600        .&      MOVS     r6,#0
        0x0800047c:    e008        ..      B        0x8000490 ; _printf_int_common + 90
        0x0800047e:    e9d42101    ...!    LDRD     r2,r1,[r4,#4]
        0x08000482:    f81a0006    ....    LDRB     r0,[r10,r6]
        0x08000486:    4790        .G      BLX      r2
        0x08000488:    6a20         j      LDR      r0,[r4,#0x20]
        0x0800048a:    1c40        @.      ADDS     r0,r0,#1
        0x0800048c:    1c76        v.      ADDS     r6,r6,#1
        0x0800048e:    6220         b      STR      r0,[r4,#0x20]
        0x08000490:    454e        NE      CMP      r6,r9
        0x08000492:    dbf4        ..      BLT      0x800047e ; _printf_int_common + 72
        0x08000494:    7820         x      LDRB     r0,[r4,#0]
        0x08000496:    06c0        ..      LSLS     r0,r0,#27
        0x08000498:    d50a        ..      BPL      0x80004b0 ; _printf_int_common + 122
        0x0800049a:    4620         F      MOV      r0,r4
        0x0800049c:    f7fffed8    ....    BL       _printf_pre_padding ; 0x8000250
        0x080004a0:    e006        ..      B        0x80004b0 ; _printf_int_common + 122
        0x080004a2:    e9d42101    ...!    LDRD     r2,r1,[r4,#4]
        0x080004a6:    2030        0       MOVS     r0,#0x30
        0x080004a8:    4790        .G      BLX      r2
        0x080004aa:    6a20         j      LDR      r0,[r4,#0x20]
        0x080004ac:    1c40        @.      ADDS     r0,r0,#1
        0x080004ae:    6220         b      STR      r0,[r4,#0x20]
        0x080004b0:    1e38        8.      SUBS     r0,r7,#0
        0x080004b2:    f1a70701    ....    SUB      r7,r7,#1
        0x080004b6:    dcf4        ..      BGT      0x80004a2 ; _printf_int_common + 108
        0x080004b8:    e007        ..      B        0x80004ca ; _printf_int_common + 148
        0x080004ba:    e9d42101    ...!    LDRD     r2,r1,[r4,#4]
        0x080004be:    f8180005    ....    LDRB     r0,[r8,r5]
        0x080004c2:    4790        .G      BLX      r2
        0x080004c4:    6a20         j      LDR      r0,[r4,#0x20]
        0x080004c6:    1c40        @.      ADDS     r0,r0,#1
        0x080004c8:    6220         b      STR      r0,[r4,#0x20]
        0x080004ca:    1e28        (.      SUBS     r0,r5,#0
        0x080004cc:    f1a50501    ....    SUB      r5,r5,#1
        0x080004d0:    dcf3        ..      BGT      0x80004ba ; _printf_int_common + 132
        0x080004d2:    4620         F      MOV      r0,r4
        0x080004d4:    f7fffed2    ....    BL       _printf_post_padding ; 0x800027c
        0x080004d8:    7820         x      LDRB     r0,[r4,#0]
        0x080004da:    0600        ..      LSLS     r0,r0,#24
        0x080004dc:    d502        ..      BPL      0x80004e4 ; _printf_int_common + 174
        0x080004de:    2002        .       MOVS     r0,#2
        0x080004e0:    e8bd87f0    ....    POP      {r4-r10,pc}
        0x080004e4:    2001        .       MOVS     r0,#1
        0x080004e6:    e7fb        ..      B        0x80004e0 ; _printf_int_common + 170
    .text
    _printf_input_char
        0x080004e8:    6901        .i      LDR      r1,[r0,#0x10]
        0x080004ea:    1c4a        J.      ADDS     r2,r1,#1
        0x080004ec:    6102        .a      STR      r2,[r0,#0x10]
        0x080004ee:    7808        .x      LDRB     r0,[r1,#0]
        0x080004f0:    4770        pG      BX       lr
    _printf_char_common
        0x080004f2:    b500        ..      PUSH     {lr}
        0x080004f4:    b08f        ..      SUB      sp,sp,#0x3c
        0x080004f6:    e9cd3101    ...1    STRD     r3,r1,[sp,#4]
        0x080004fa:    2100        .!      MOVS     r1,#0
        0x080004fc:    9105        ..      STR      r1,[sp,#0x14]
        0x080004fe:    4905        .I      LDR      r1,[pc,#20] ; [0x8000514] = 0xffffffe5
        0x08000500:    4479        yD      ADD      r1,r1,pc
        0x08000502:    e9cd1003    ....    STRD     r1,r0,[sp,#0xc]
        0x08000506:    4611        .F      MOV      r1,r2
        0x08000508:    4668        hF      MOV      r0,sp
        0x0800050a:    f7fffef5    ....    BL       __printf ; 0x80002f8
        0x0800050e:    b00f        ..      ADD      sp,sp,#0x3c
        0x08000510:    bd00        ..      POP      {pc}
    $d
        0x08000512:    0000        ..      DCW    0
        0x08000514:    ffffffe5    ....    DCD    4294967269
    $t
    .text
    _sputc
        0x08000518:    680a        .h      LDR      r2,[r1,#0]
        0x0800051a:    f8020b01    ....    STRB     r0,[r2],#1
        0x0800051e:    600a        .`      STR      r2,[r1,#0]
        0x08000520:    4770        pG      BX       lr
    .text
    __user_setup_stackheap
        0x08000522:    4675        uF      MOV      r5,lr
        0x08000524:    f000f82c    ..,.    BL       __user_libspace ; 0x8000580
        0x08000528:    46ae        .F      MOV      lr,r5
        0x0800052a:    0005        ..      MOVS     r5,r0
        0x0800052c:    4669        iF      MOV      r1,sp
        0x0800052e:    4653        SF      MOV      r3,r10
        0x08000530:    f0200007     ...    BIC      r0,r0,#7
        0x08000534:    4685        .F      MOV      sp,r0
        0x08000536:    b018        ..      ADD      sp,sp,#0x60
        0x08000538:    b520         .      PUSH     {r5,lr}
        0x0800053a:    f7fffe63    ..c.    BL       __user_initial_stackheap ; 0x8000204
        0x0800053e:    e8bd4020    .. @    POP      {r5,lr}
        0x08000542:    f04f0600    O...    MOV      r6,#0
        0x08000546:    f04f0700    O...    MOV      r7,#0
        0x0800054a:    f04f0800    O...    MOV      r8,#0
        0x0800054e:    f04f0b00    O...    MOV      r11,#0
        0x08000552:    f0210107    !...    BIC      r1,r1,#7
        0x08000556:    46ac        .F      MOV      r12,r5
        0x08000558:    e8ac09c0    ....    STM      r12!,{r6-r8,r11}
        0x0800055c:    e8ac09c0    ....    STM      r12!,{r6-r8,r11}
        0x08000560:    e8ac09c0    ....    STM      r12!,{r6-r8,r11}
        0x08000564:    e8ac09c0    ....    STM      r12!,{r6-r8,r11}
        0x08000568:    468d        .F      MOV      sp,r1
        0x0800056a:    4770        pG      BX       lr
    .text
    exit
        0x0800056c:    b510        ..      PUSH     {r4,lr}
        0x0800056e:    4604        .F      MOV      r4,r0
        0x08000570:    f3af8000    ....    NOP.W    
        0x08000574:    4620         F      MOV      r0,r4
        0x08000576:    e8bd4010    ...@    POP      {r4,lr}
        0x0800057a:    f7ffbe2f    ../.    B.W      __rt_exit ; 0x80001dc
        0x0800057e:    0000        ..      MOVS     r0,r0
    .text
    __user_libspace
    __user_perproc_libspace
    __user_perthread_libspace
        0x08000580:    4800        .H      LDR      r0,[pc,#0] ; [0x8000584] = 0x2000001c
        0x08000582:    4770        pG      BX       lr
    $d
        0x08000584:    2000001c    ...     DCD    536870940
    $t
    .text
    _sys_exit
        0x08000588:    4901        .I      LDR      r1,[pc,#4] ; [0x8000590] = 0x20026
        0x0800058a:    2018        .       MOVS     r0,#0x18
        0x0800058c:    beab        ..      BKPT     #0xab
        0x0800058e:    e7fe        ..      B        0x800058e ; _sys_exit + 6
    $d
        0x08000590:    00020026    &...    DCD    131110
    $t
    .text
    __I$use$semihosting
    __use_no_semihosting_swi
        0x08000594:    4770        pG      BX       lr
    i.BusFault_Handler
    .text
    BusFault_Handler
    __semihosting_library_function
        0x08000596:    bf00        ..      NOP      
        0x08000598:    e7fe        ..      B        0x8000598 ; BusFault_Handler + 2
    i.DebugMon_Handler
    DebugMon_Handler
        0x0800059a:    4770        pG      BX       lr
    i.GPIO_Config
    GPIO_Config
        0x0800059c:    b5f0        ..      PUSH     {r4-r7,lr}
        0x0800059e:    78cf        .x      LDRB     r7,[r1,#3]
        0x080005a0:    f007060f    ....    AND      r6,r7,#0xf
        0x080005a4:    78cf        .x      LDRB     r7,[r1,#3]
        0x080005a6:    f0070780    ....    AND      r7,r7,#0x80
        0x080005aa:    b10f        ..      CBZ      r7,0x80005b0 ; GPIO_Config + 20
        0x080005ac:    788f        .x      LDRB     r7,[r1,#2]
        0x080005ae:    433e        >C      ORRS     r6,r6,r7
        0x080005b0:    780f        .x      LDRB     r7,[r1,#0]
        0x080005b2:    b1e7        ..      CBZ      r7,0x80005ee ; GPIO_Config + 82
        0x080005b4:    6804        .h      LDR      r4,[r0,#0]
        0x080005b6:    2300        .#      MOVS     r3,#0
        0x080005b8:    2201        ."      MOVS     r2,#1
        0x080005ba:    e015        ..      B        0x80005e8 ; GPIO_Config + 76
        0x080005bc:    880f        ..      LDRH     r7,[r1,#0]
        0x080005be:    4017        .@      ANDS     r7,r7,r2
        0x080005c0:    b17f        ..      CBZ      r7,0x80005e2 ; GPIO_Config + 70
        0x080005c2:    009d        ..      LSLS     r5,r3,#2
        0x080005c4:    270f        .'      MOVS     r7,#0xf
        0x080005c6:    40af        .@      LSLS     r7,r7,r5
        0x080005c8:    43bc        .C      BICS     r4,r4,r7
        0x080005ca:    fa06f705    ....    LSL      r7,r6,r5
        0x080005ce:    433c        <C      ORRS     r4,r4,r7
        0x080005d0:    78cf        .x      LDRB     r7,[r1,#3]
        0x080005d2:    2f28        (/      CMP      r7,#0x28
        0x080005d4:    d101        ..      BNE      0x80005da ; GPIO_Config + 62
        0x080005d6:    6142        Ba      STR      r2,[r0,#0x14]
        0x080005d8:    e003        ..      B        0x80005e2 ; GPIO_Config + 70
        0x080005da:    78cf        .x      LDRB     r7,[r1,#3]
        0x080005dc:    2f48        H/      CMP      r7,#0x48
        0x080005de:    d100        ..      BNE      0x80005e2 ; GPIO_Config + 70
        0x080005e0:    6102        .a      STR      r2,[r0,#0x10]
        0x080005e2:    1c5f        _.      ADDS     r7,r3,#1
        0x080005e4:    b2fb        ..      UXTB     r3,r7
        0x080005e6:    0052        R.      LSLS     r2,r2,#1
        0x080005e8:    2b08        .+      CMP      r3,#8
        0x080005ea:    dbe7        ..      BLT      0x80005bc ; GPIO_Config + 32
        0x080005ec:    6004        .`      STR      r4,[r0,#0]
        0x080005ee:    880f        ..      LDRH     r7,[r1,#0]
        0x080005f0:    f407477f    ...G    AND      r7,r7,#0xff00
        0x080005f4:    b1f7        ..      CBZ      r7,0x8000634 ; GPIO_Config + 152
        0x080005f6:    6844        Dh      LDR      r4,[r0,#4]
        0x080005f8:    2308        .#      MOVS     r3,#8
        0x080005fa:    015a        Z.      LSLS     r2,r3,#5
        0x080005fc:    e017        ..      B        0x800062e ; GPIO_Config + 146
        0x080005fe:    880f        ..      LDRH     r7,[r1,#0]
        0x08000600:    4017        .@      ANDS     r7,r7,r2
        0x08000602:    b18f        ..      CBZ      r7,0x8000628 ; GPIO_Config + 140
        0x08000604:    f1a30708    ....    SUB      r7,r3,#8
        0x08000608:    00bd        ..      LSLS     r5,r7,#2
        0x0800060a:    270f        .'      MOVS     r7,#0xf
        0x0800060c:    40af        .@      LSLS     r7,r7,r5
        0x0800060e:    43bc        .C      BICS     r4,r4,r7
        0x08000610:    fa06f705    ....    LSL      r7,r6,r5
        0x08000614:    433c        <C      ORRS     r4,r4,r7
        0x08000616:    78cf        .x      LDRB     r7,[r1,#3]
        0x08000618:    2f28        (/      CMP      r7,#0x28
        0x0800061a:    d101        ..      BNE      0x8000620 ; GPIO_Config + 132
        0x0800061c:    6142        Ba      STR      r2,[r0,#0x14]
        0x0800061e:    e003        ..      B        0x8000628 ; GPIO_Config + 140
        0x08000620:    78cf        .x      LDRB     r7,[r1,#3]
        0x08000622:    2f48        H/      CMP      r7,#0x48
        0x08000624:    d100        ..      BNE      0x8000628 ; GPIO_Config + 140
        0x08000626:    6102        .a      STR      r2,[r0,#0x10]
        0x08000628:    1c5f        _.      ADDS     r7,r3,#1
        0x0800062a:    b2fb        ..      UXTB     r3,r7
        0x0800062c:    0052        R.      LSLS     r2,r2,#1
        0x0800062e:    2b10        .+      CMP      r3,#0x10
        0x08000630:    dbe5        ..      BLT      0x80005fe ; GPIO_Config + 98
        0x08000632:    6044        D`      STR      r4,[r0,#4]
        0x08000634:    bdf0        ..      POP      {r4-r7,pc}
    i.GPIO_ResetBit
    GPIO_ResetBit
        0x08000636:    6141        Aa      STR      r1,[r0,#0x14]
        0x08000638:    4770        pG      BX       lr
    i.GPIO_SetBit
    GPIO_SetBit
        0x0800063a:    6101        .a      STR      r1,[r0,#0x10]
        0x0800063c:    4770        pG      BX       lr
    i.HardFault_Handler
    HardFault_Handler
        0x0800063e:    bf00        ..      NOP      
        0x08000640:    e7fe        ..      B        0x8000640 ; HardFault_Handler + 2
        0x08000642:    0000        ..      MOVS     r0,r0
    i.LCD_Backligh_Init
    LCD_Backligh_Init
        0x08000644:    b508        ..      PUSH     {r3,lr}
        0x08000646:    2008        .       MOVS     r0,#8
        0x08000648:    f000fbc4    ....    BL       RCM_EnableAPB2PeriphClock ; 0x8000dd4
        0x0800064c:    2001        .       MOVS     r0,#1
        0x0800064e:    f8ad0000    ....    STRH     r0,[sp,#0]
        0x08000652:    2080        .       MOVS     r0,#0x80
        0x08000654:    f88d0003    ....    STRB     r0,[sp,#3]
        0x08000658:    2003        .       MOVS     r0,#3
        0x0800065a:    f88d0002    ....    STRB     r0,[sp,#2]
        0x0800065e:    4669        iF      MOV      r1,sp
        0x08000660:    4801        .H      LDR      r0,[pc,#4] ; [0x8000668] = 0x40010c00
        0x08000662:    f7ffff9b    ....    BL       GPIO_Config ; 0x800059c
        0x08000666:    bd08        ..      POP      {r3,pc}
    $d
        0x08000668:    40010c00    ...@    DCD    1073810432
    $t
    i.LCD_Clear
    LCD_Clear
        0x0800066c:    b570        p.      PUSH     {r4-r6,lr}
        0x0800066e:    4604        .F      MOV      r4,r0
        0x08000670:    2600        .&      MOVS     r6,#0
        0x08000672:    4809        .H      LDR      r0,[pc,#36] ; [0x8000698] = 0x2000000c
        0x08000674:    8805        ..      LDRH     r5,[r0,#0]
        0x08000676:    8840        @.      LDRH     r0,[r0,#2]
        0x08000678:    4345        EC      MULS     r5,r0,r5
        0x0800067a:    2100        .!      MOVS     r1,#0
        0x0800067c:    4608        .F      MOV      r0,r1
        0x0800067e:    f000fa9d    ....    BL       LCD_SetCursor ; 0x8000bbc
        0x08000682:    f000fb89    ....    BL       LCD_WriteRAM_Prepare ; 0x8000d98
        0x08000686:    bf00        ..      NOP      
        0x08000688:    e002        ..      B        0x8000690 ; LCD_Clear + 36
        0x0800068a:    4804        .H      LDR      r0,[pc,#16] ; [0x800069c] = 0x6c000800
        0x0800068c:    8004        ..      STRH     r4,[r0,#0]
        0x0800068e:    1c76        v.      ADDS     r6,r6,#1
        0x08000690:    42ae        .B      CMP      r6,r5
        0x08000692:    d3fa        ..      BCC      0x800068a ; LCD_Clear + 30
        0x08000694:    bd70        p.      POP      {r4-r6,pc}
    $d
        0x08000696:    0000        ..      DCW    0
        0x08000698:    2000000c    ...     DCD    536870924
        0x0800069c:    6c000800    ...l    DCD    1811941376
    $t
    i.LCD_Display_Dir
    LCD_Display_Dir
        0x080006a0:    b510        ..      PUSH     {r4,lr}
        0x080006a2:    4604        .F      MOV      r4,r0
        0x080006a4:    b974        t.      CBNZ     r4,0x80006c4 ; LCD_Display_Dir + 36
        0x080006a6:    2000        .       MOVS     r0,#0
        0x080006a8:    490f        .I      LDR      r1,[pc,#60] ; [0x80006e8] = 0x2000000c
        0x080006aa:    7188        .q      STRB     r0,[r1,#6]
        0x080006ac:    20f0        .       MOVS     r0,#0xf0
        0x080006ae:    8008        ..      STRH     r0,[r1,#0]
        0x080006b0:    f44f70a0    O..p    MOV      r0,#0x140
        0x080006b4:    8048        H.      STRH     r0,[r1,#2]
        0x080006b6:    202c        ,       MOVS     r0,#0x2c
        0x080006b8:    8108        ..      STRH     r0,[r1,#8]
        0x080006ba:    202a        *       MOVS     r0,#0x2a
        0x080006bc:    8148        H.      STRH     r0,[r1,#0xa]
        0x080006be:    202b        +       MOVS     r0,#0x2b
        0x080006c0:    8188        ..      STRH     r0,[r1,#0xc]
        0x080006c2:    e00d        ..      B        0x80006e0 ; LCD_Display_Dir + 64
        0x080006c4:    2001        .       MOVS     r0,#1
        0x080006c6:    4908        .I      LDR      r1,[pc,#32] ; [0x80006e8] = 0x2000000c
        0x080006c8:    7188        .q      STRB     r0,[r1,#6]
        0x080006ca:    f44f70a0    O..p    MOV      r0,#0x140
        0x080006ce:    8008        ..      STRH     r0,[r1,#0]
        0x080006d0:    20f0        .       MOVS     r0,#0xf0
        0x080006d2:    8048        H.      STRH     r0,[r1,#2]
        0x080006d4:    202c        ,       MOVS     r0,#0x2c
        0x080006d6:    8108        ..      STRH     r0,[r1,#8]
        0x080006d8:    202a        *       MOVS     r0,#0x2a
        0x080006da:    8148        H.      STRH     r0,[r1,#0xa]
        0x080006dc:    202b        +       MOVS     r0,#0x2b
        0x080006de:    8188        ..      STRH     r0,[r1,#0xc]
        0x080006e0:    2000        .       MOVS     r0,#0
        0x080006e2:    f000fa11    ....    BL       LCD_Scan_Dir ; 0x8000b08
        0x080006e6:    bd10        ..      POP      {r4,pc}
    $d
        0x080006e8:    2000000c    ...     DCD    536870924
    $t
    i.LCD_Fast_DrawPoint
    LCD_Fast_DrawPoint
        0x080006ec:    b510        ..      PUSH     {r4,lr}
        0x080006ee:    4603        .F      MOV      r3,r0
        0x080006f0:    460c        .F      MOV      r4,r1
        0x080006f2:    490d        .I      LDR      r1,[pc,#52] ; [0x8000728] = 0x2000000c
        0x080006f4:    8948        H.      LDRH     r0,[r1,#0xa]
        0x080006f6:    f000fb49    ..I.    BL       LCD_WR_REG ; 0x8000d8c
        0x080006fa:    1218        ..      ASRS     r0,r3,#8
        0x080006fc:    f000fb40    ..@.    BL       LCD_WR_DATA ; 0x8000d80
        0x08000700:    b2d8        ..      UXTB     r0,r3
        0x08000702:    f000fb3d    ..=.    BL       LCD_WR_DATA ; 0x8000d80
        0x08000706:    4908        .I      LDR      r1,[pc,#32] ; [0x8000728] = 0x2000000c
        0x08000708:    8988        ..      LDRH     r0,[r1,#0xc]
        0x0800070a:    f000fb3f    ..?.    BL       LCD_WR_REG ; 0x8000d8c
        0x0800070e:    1220         .      ASRS     r0,r4,#8
        0x08000710:    f000fb36    ..6.    BL       LCD_WR_DATA ; 0x8000d80
        0x08000714:    b2e0        ..      UXTB     r0,r4
        0x08000716:    f000fb33    ..3.    BL       LCD_WR_DATA ; 0x8000d80
        0x0800071a:    4803        .H      LDR      r0,[pc,#12] ; [0x8000728] = 0x2000000c
        0x0800071c:    8900        ..      LDRH     r0,[r0,#8]
        0x0800071e:    4903        .I      LDR      r1,[pc,#12] ; [0x800072c] = 0x6c0007fe
        0x08000720:    8008        ..      STRH     r0,[r1,#0]
        0x08000722:    1c88        ..      ADDS     r0,r1,#2
        0x08000724:    8002        ..      STRH     r2,[r0,#0]
        0x08000726:    bd10        ..      POP      {r4,pc}
    $d
        0x08000728:    2000000c    ...     DCD    536870924
        0x0800072c:    6c0007fe    ...l    DCD    1811941374
    $t
    i.LCD_HReset_Init
    LCD_HReset_Init
        0x08000730:    b508        ..      PUSH     {r3,lr}
        0x08000732:    2008        .       MOVS     r0,#8
        0x08000734:    f000fb4e    ..N.    BL       RCM_EnableAPB2PeriphClock ; 0x8000dd4
        0x08000738:    2020                MOVS     r0,#0x20
        0x0800073a:    f8ad0000    ....    STRH     r0,[sp,#0]
        0x0800073e:    2080        .       MOVS     r0,#0x80
        0x08000740:    f88d0003    ....    STRB     r0,[sp,#3]
        0x08000744:    2003        .       MOVS     r0,#3
        0x08000746:    f88d0002    ....    STRB     r0,[sp,#2]
        0x0800074a:    4669        iF      MOV      r1,sp
        0x0800074c:    4801        .H      LDR      r0,[pc,#4] ; [0x8000754] = 0x40010c00
        0x0800074e:    f7ffff25    ..%.    BL       GPIO_Config ; 0x800059c
        0x08000752:    bd08        ..      POP      {r3,pc}
    $d
        0x08000754:    40010c00    ...@    DCD    1073810432
    $t
    i.LCD_Init
    LCD_Init
        0x08000758:    b500        ..      PUSH     {lr}
        0x0800075a:    b08b        ..      SUB      sp,sp,#0x2c
        0x0800075c:    f44f7080    O..p    MOV      r0,#0x100
        0x08000760:    f000fb30    ..0.    BL       RCM_EnableAHBPeriphClock ; 0x8000dc4
        0x08000764:    f44f70b0    O..p    MOV      r0,#0x160
        0x08000768:    f000fb34    ..4.    BL       RCM_EnableAPB2PeriphClock ; 0x8000dd4
        0x0800076c:    f24c7033    L.3p    MOV      r0,#0xc733
        0x08000770:    f8ad0028    ..(.    STRH     r0,[sp,#0x28]
        0x08000774:    2088        .       MOVS     r0,#0x88
        0x08000776:    f88d002b    ..+.    STRB     r0,[sp,#0x2b]
        0x0800077a:    2003        .       MOVS     r0,#3
        0x0800077c:    f88d002a    ..*.    STRB     r0,[sp,#0x2a]
        0x08000780:    a90a        ..      ADD      r1,sp,#0x28
        0x08000782:    48d7        .H      LDR      r0,[pc,#860] ; [0x8000ae0] = 0x40011400
        0x08000784:    f7ffff0a    ....    BL       GPIO_Config ; 0x800059c
        0x08000788:    f64f7080    O..p    MOV      r0,#0xff80
        0x0800078c:    f8ad0028    ..(.    STRH     r0,[sp,#0x28]
        0x08000790:    2088        .       MOVS     r0,#0x88
        0x08000792:    f88d002b    ..+.    STRB     r0,[sp,#0x2b]
        0x08000796:    2003        .       MOVS     r0,#3
        0x08000798:    f88d002a    ..*.    STRB     r0,[sp,#0x2a]
        0x0800079c:    a90a        ..      ADD      r1,sp,#0x28
        0x0800079e:    48d1        .H      LDR      r0,[pc,#836] ; [0x8000ae4] = 0x40011800
        0x080007a0:    f7fffefc    ....    BL       GPIO_Config ; 0x800059c
        0x080007a4:    f2410001    A...    MOV      r0,#0x1001
        0x080007a8:    f8ad0028    ..(.    STRH     r0,[sp,#0x28]
        0x080007ac:    2088        .       MOVS     r0,#0x88
        0x080007ae:    f88d002b    ..+.    STRB     r0,[sp,#0x2b]
        0x080007b2:    2003        .       MOVS     r0,#3
        0x080007b4:    f88d002a    ..*.    STRB     r0,[sp,#0x2a]
        0x080007b8:    a90a        ..      ADD      r1,sp,#0x28
        0x080007ba:    48cb        .H      LDR      r0,[pc,#812] ; [0x8000ae8] = 0x40012000
        0x080007bc:    f7fffeee    ....    BL       GPIO_Config ; 0x800059c
        0x080007c0:    2001        .       MOVS     r0,#1
        0x080007c2:    f88d0008    ....    STRB     r0,[sp,#8]
        0x080007c6:    2000        .       MOVS     r0,#0
        0x080007c8:    f88d0009    ....    STRB     r0,[sp,#9]
        0x080007cc:    200f        .       MOVS     r0,#0xf
        0x080007ce:    f88d000a    ....    STRB     r0,[sp,#0xa]
        0x080007d2:    2000        .       MOVS     r0,#0
        0x080007d4:    f88d000b    ....    STRB     r0,[sp,#0xb]
        0x080007d8:    f88d000c    ....    STRB     r0,[sp,#0xc]
        0x080007dc:    f88d000d    ....    STRB     r0,[sp,#0xd]
        0x080007e0:    f88d000e    ....    STRB     r0,[sp,#0xe]
        0x080007e4:    f88d0000    ....    STRB     r0,[sp,#0]
        0x080007e8:    f88d0001    ....    STRB     r0,[sp,#1]
        0x080007ec:    2003        .       MOVS     r0,#3
        0x080007ee:    f88d0002    ....    STRB     r0,[sp,#2]
        0x080007f2:    2000        .       MOVS     r0,#0
        0x080007f4:    f88d0003    ....    STRB     r0,[sp,#3]
        0x080007f8:    f88d0004    ....    STRB     r0,[sp,#4]
        0x080007fc:    f88d0005    ....    STRB     r0,[sp,#5]
        0x08000800:    f88d0006    ....    STRB     r0,[sp,#6]
        0x08000804:    2003        .       MOVS     r0,#3
        0x08000806:    f88d0010    ....    STRB     r0,[sp,#0x10]
        0x0800080a:    2000        .       MOVS     r0,#0
        0x0800080c:    f88d0011    ....    STRB     r0,[sp,#0x11]
        0x08000810:    f88d0012    ....    STRB     r0,[sp,#0x12]
        0x08000814:    2001        .       MOVS     r0,#1
        0x08000816:    f88d0013    ....    STRB     r0,[sp,#0x13]
        0x0800081a:    2000        .       MOVS     r0,#0
        0x0800081c:    f88d0014    ....    STRB     r0,[sp,#0x14]
        0x08000820:    f88d0016    ....    STRB     r0,[sp,#0x16]
        0x08000824:    f88d0015    ....    STRB     r0,[sp,#0x15]
        0x08000828:    f88d0017    ....    STRB     r0,[sp,#0x17]
        0x0800082c:    f88d0018    ....    STRB     r0,[sp,#0x18]
        0x08000830:    2001        .       MOVS     r0,#1
        0x08000832:    f88d0019    ....    STRB     r0,[sp,#0x19]
        0x08000836:    2000        .       MOVS     r0,#0
        0x08000838:    f88d001a    ....    STRB     r0,[sp,#0x1a]
        0x0800083c:    2001        .       MOVS     r0,#1
        0x0800083e:    f88d001b    ....    STRB     r0,[sp,#0x1b]
        0x08000842:    2000        .       MOVS     r0,#0
        0x08000844:    f88d001c    ....    STRB     r0,[sp,#0x1c]
        0x08000848:    a802        ..      ADD      r0,sp,#8
        0x0800084a:    9008        ..      STR      r0,[sp,#0x20]
        0x0800084c:    f8cdd024    ..$.    STR      sp,[sp,#0x24]
        0x08000850:    a804        ..      ADD      r0,sp,#0x10
        0x08000852:    f000fac7    ....    BL       SMC_ConfigNORSRAM ; 0x8000de4
        0x08000856:    2003        .       MOVS     r0,#3
        0x08000858:    f000fec6    ....    BL       SMC_EnableNORSRAM ; 0x80015e8
        0x0800085c:    2064        d       MOVS     r0,#0x64
        0x0800085e:    f000ffd5    ....    BL       delay_ms ; 0x800180c
        0x08000862:    20d3        .       MOVS     r0,#0xd3
        0x08000864:    f000fa92    ....    BL       LCD_WR_REG ; 0x8000d8c
        0x08000868:    f000f944    ..D.    BL       LCD_RD_DATA ; 0x8000af4
        0x0800086c:    499f        .I      LDR      r1,[pc,#636] ; [0x8000aec] = 0x2000000c
        0x0800086e:    8088        ..      STRH     r0,[r1,#4]
        0x08000870:    f000f940    ..@.    BL       LCD_RD_DATA ; 0x8000af4
        0x08000874:    499d        .I      LDR      r1,[pc,#628] ; [0x8000aec] = 0x2000000c
        0x08000876:    8088        ..      STRH     r0,[r1,#4]
        0x08000878:    f000f93c    ..<.    BL       LCD_RD_DATA ; 0x8000af4
        0x0800087c:    499b        .I      LDR      r1,[pc,#620] ; [0x8000aec] = 0x2000000c
        0x0800087e:    8088        ..      STRH     r0,[r1,#4]
        0x08000880:    4608        .F      MOV      r0,r1
        0x08000882:    8880        ..      LDRH     r0,[r0,#4]
        0x08000884:    f64f71ff    O..q    MOV      r1,#0xffff
        0x08000888:    ea012000    ...     AND      r0,r1,r0,LSL #8
        0x0800088c:    4997        .I      LDR      r1,[pc,#604] ; [0x8000aec] = 0x2000000c
        0x0800088e:    8088        ..      STRH     r0,[r1,#4]
        0x08000890:    f000f930    ..0.    BL       LCD_RD_DATA ; 0x8000af4
        0x08000894:    4995        .I      LDR      r1,[pc,#596] ; [0x8000aec] = 0x2000000c
        0x08000896:    8889        ..      LDRH     r1,[r1,#4]
        0x08000898:    4308        .C      ORRS     r0,r0,r1
        0x0800089a:    4994        .I      LDR      r1,[pc,#592] ; [0x8000aec] = 0x2000000c
        0x0800089c:    8088        ..      STRH     r0,[r1,#4]
        0x0800089e:    20cf        .       MOVS     r0,#0xcf
        0x080008a0:    f000fa74    ..t.    BL       LCD_WR_REG ; 0x8000d8c
        0x080008a4:    2000        .       MOVS     r0,#0
        0x080008a6:    f000fa6b    ..k.    BL       LCD_WR_DATA ; 0x8000d80
        0x080008aa:    20c1        .       MOVS     r0,#0xc1
        0x080008ac:    f000fa68    ..h.    BL       LCD_WR_DATA ; 0x8000d80
        0x080008b0:    2030        0       MOVS     r0,#0x30
        0x080008b2:    f000fa65    ..e.    BL       LCD_WR_DATA ; 0x8000d80
        0x080008b6:    20ed        .       MOVS     r0,#0xed
        0x080008b8:    f000fa68    ..h.    BL       LCD_WR_REG ; 0x8000d8c
        0x080008bc:    2064        d       MOVS     r0,#0x64
        0x080008be:    f000fa5f    .._.    BL       LCD_WR_DATA ; 0x8000d80
        0x080008c2:    2003        .       MOVS     r0,#3
        0x080008c4:    f000fa5c    ..\.    BL       LCD_WR_DATA ; 0x8000d80
        0x080008c8:    2012        .       MOVS     r0,#0x12
        0x080008ca:    f000fa59    ..Y.    BL       LCD_WR_DATA ; 0x8000d80
        0x080008ce:    2081        .       MOVS     r0,#0x81
        0x080008d0:    f000fa56    ..V.    BL       LCD_WR_DATA ; 0x8000d80
        0x080008d4:    20e8        .       MOVS     r0,#0xe8
        0x080008d6:    f000fa59    ..Y.    BL       LCD_WR_REG ; 0x8000d8c
        0x080008da:    2085        .       MOVS     r0,#0x85
        0x080008dc:    f000fa50    ..P.    BL       LCD_WR_DATA ; 0x8000d80
        0x080008e0:    2010        .       MOVS     r0,#0x10
        0x080008e2:    f000fa4d    ..M.    BL       LCD_WR_DATA ; 0x8000d80
        0x080008e6:    207a        z       MOVS     r0,#0x7a
        0x080008e8:    f000fa4a    ..J.    BL       LCD_WR_DATA ; 0x8000d80
        0x080008ec:    20cb        .       MOVS     r0,#0xcb
        0x080008ee:    f000fa4d    ..M.    BL       LCD_WR_REG ; 0x8000d8c
        0x080008f2:    2039        9       MOVS     r0,#0x39
        0x080008f4:    f000fa44    ..D.    BL       LCD_WR_DATA ; 0x8000d80
        0x080008f8:    202c        ,       MOVS     r0,#0x2c
        0x080008fa:    f000fa41    ..A.    BL       LCD_WR_DATA ; 0x8000d80
        0x080008fe:    2000        .       MOVS     r0,#0
        0x08000900:    f000fa3e    ..>.    BL       LCD_WR_DATA ; 0x8000d80
        0x08000904:    2034        4       MOVS     r0,#0x34
        0x08000906:    f000fa3b    ..;.    BL       LCD_WR_DATA ; 0x8000d80
        0x0800090a:    2002        .       MOVS     r0,#2
        0x0800090c:    f000fa38    ..8.    BL       LCD_WR_DATA ; 0x8000d80
        0x08000910:    20f7        .       MOVS     r0,#0xf7
        0x08000912:    f000fa3b    ..;.    BL       LCD_WR_REG ; 0x8000d8c
        0x08000916:    2020                MOVS     r0,#0x20
        0x08000918:    f000fa32    ..2.    BL       LCD_WR_DATA ; 0x8000d80
        0x0800091c:    20ea        .       MOVS     r0,#0xea
        0x0800091e:    f000fa35    ..5.    BL       LCD_WR_REG ; 0x8000d8c
        0x08000922:    2000        .       MOVS     r0,#0
        0x08000924:    f000fa2c    ..,.    BL       LCD_WR_DATA ; 0x8000d80
        0x08000928:    2000        .       MOVS     r0,#0
        0x0800092a:    f000fa29    ..).    BL       LCD_WR_DATA ; 0x8000d80
        0x0800092e:    20c0        .       MOVS     r0,#0xc0
        0x08000930:    f000fa2c    ..,.    BL       LCD_WR_REG ; 0x8000d8c
        0x08000934:    201b        .       MOVS     r0,#0x1b
        0x08000936:    f000fa23    ..#.    BL       LCD_WR_DATA ; 0x8000d80
        0x0800093a:    20c1        .       MOVS     r0,#0xc1
        0x0800093c:    f000fa26    ..&.    BL       LCD_WR_REG ; 0x8000d8c
        0x08000940:    2001        .       MOVS     r0,#1
        0x08000942:    f000fa1d    ....    BL       LCD_WR_DATA ; 0x8000d80
        0x08000946:    20c5        .       MOVS     r0,#0xc5
        0x08000948:    f000fa20    .. .    BL       LCD_WR_REG ; 0x8000d8c
        0x0800094c:    2030        0       MOVS     r0,#0x30
        0x0800094e:    f000fa17    ....    BL       LCD_WR_DATA ; 0x8000d80
        0x08000952:    2030        0       MOVS     r0,#0x30
        0x08000954:    f000fa14    ....    BL       LCD_WR_DATA ; 0x8000d80
        0x08000958:    20c7        .       MOVS     r0,#0xc7
        0x0800095a:    f000fa17    ....    BL       LCD_WR_REG ; 0x8000d8c
        0x0800095e:    20b7        .       MOVS     r0,#0xb7
        0x08000960:    f000fa0e    ....    BL       LCD_WR_DATA ; 0x8000d80
        0x08000964:    2036        6       MOVS     r0,#0x36
        0x08000966:    f000fa11    ....    BL       LCD_WR_REG ; 0x8000d8c
        0x0800096a:    2048        H       MOVS     r0,#0x48
        0x0800096c:    f000fa08    ....    BL       LCD_WR_DATA ; 0x8000d80
        0x08000970:    203a        :       MOVS     r0,#0x3a
        0x08000972:    f000fa0b    ....    BL       LCD_WR_REG ; 0x8000d8c
        0x08000976:    2055        U       MOVS     r0,#0x55
        0x08000978:    f000fa02    ....    BL       LCD_WR_DATA ; 0x8000d80
        0x0800097c:    20b1        .       MOVS     r0,#0xb1
        0x0800097e:    f000fa05    ....    BL       LCD_WR_REG ; 0x8000d8c
        0x08000982:    2000        .       MOVS     r0,#0
        0x08000984:    f000f9fc    ....    BL       LCD_WR_DATA ; 0x8000d80
        0x08000988:    201a        .       MOVS     r0,#0x1a
        0x0800098a:    f000f9f9    ....    BL       LCD_WR_DATA ; 0x8000d80
        0x0800098e:    20b6        .       MOVS     r0,#0xb6
        0x08000990:    f000f9fc    ....    BL       LCD_WR_REG ; 0x8000d8c
        0x08000994:    200a        .       MOVS     r0,#0xa
        0x08000996:    f000f9f3    ....    BL       LCD_WR_DATA ; 0x8000d80
        0x0800099a:    20a2        .       MOVS     r0,#0xa2
        0x0800099c:    f000f9f0    ....    BL       LCD_WR_DATA ; 0x8000d80
        0x080009a0:    20f2        .       MOVS     r0,#0xf2
        0x080009a2:    f000f9f3    ....    BL       LCD_WR_REG ; 0x8000d8c
        0x080009a6:    2000        .       MOVS     r0,#0
        0x080009a8:    f000f9ea    ....    BL       LCD_WR_DATA ; 0x8000d80
        0x080009ac:    2026        &       MOVS     r0,#0x26
        0x080009ae:    f000f9ed    ....    BL       LCD_WR_REG ; 0x8000d8c
        0x080009b2:    2001        .       MOVS     r0,#1
        0x080009b4:    f000f9e4    ....    BL       LCD_WR_DATA ; 0x8000d80
        0x080009b8:    20e0        .       MOVS     r0,#0xe0
        0x080009ba:    f000f9e7    ....    BL       LCD_WR_REG ; 0x8000d8c
        0x080009be:    200f        .       MOVS     r0,#0xf
        0x080009c0:    f000f9de    ....    BL       LCD_WR_DATA ; 0x8000d80
        0x080009c4:    202a        *       MOVS     r0,#0x2a
        0x080009c6:    f000f9db    ....    BL       LCD_WR_DATA ; 0x8000d80
        0x080009ca:    2028        (       MOVS     r0,#0x28
        0x080009cc:    f000f9d8    ....    BL       LCD_WR_DATA ; 0x8000d80
        0x080009d0:    2008        .       MOVS     r0,#8
        0x080009d2:    f000f9d5    ....    BL       LCD_WR_DATA ; 0x8000d80
        0x080009d6:    200e        .       MOVS     r0,#0xe
        0x080009d8:    f000f9d2    ....    BL       LCD_WR_DATA ; 0x8000d80
        0x080009dc:    2008        .       MOVS     r0,#8
        0x080009de:    f000f9cf    ....    BL       LCD_WR_DATA ; 0x8000d80
        0x080009e2:    2054        T       MOVS     r0,#0x54
        0x080009e4:    f000f9cc    ....    BL       LCD_WR_DATA ; 0x8000d80
        0x080009e8:    20a9        .       MOVS     r0,#0xa9
        0x080009ea:    f000f9c9    ....    BL       LCD_WR_DATA ; 0x8000d80
        0x080009ee:    2043        C       MOVS     r0,#0x43
        0x080009f0:    f000f9c6    ....    BL       LCD_WR_DATA ; 0x8000d80
        0x080009f4:    200a        .       MOVS     r0,#0xa
        0x080009f6:    f000f9c3    ....    BL       LCD_WR_DATA ; 0x8000d80
        0x080009fa:    200f        .       MOVS     r0,#0xf
        0x080009fc:    f000f9c0    ....    BL       LCD_WR_DATA ; 0x8000d80
        0x08000a00:    2000        .       MOVS     r0,#0
        0x08000a02:    f000f9bd    ....    BL       LCD_WR_DATA ; 0x8000d80
        0x08000a06:    2000        .       MOVS     r0,#0
        0x08000a08:    f000f9ba    ....    BL       LCD_WR_DATA ; 0x8000d80
        0x08000a0c:    2000        .       MOVS     r0,#0
        0x08000a0e:    f000f9b7    ....    BL       LCD_WR_DATA ; 0x8000d80
        0x08000a12:    2000        .       MOVS     r0,#0
        0x08000a14:    f000f9b4    ....    BL       LCD_WR_DATA ; 0x8000d80
        0x08000a18:    20e1        .       MOVS     r0,#0xe1
        0x08000a1a:    f000f9b7    ....    BL       LCD_WR_REG ; 0x8000d8c
        0x08000a1e:    2000        .       MOVS     r0,#0
        0x08000a20:    f000f9ae    ....    BL       LCD_WR_DATA ; 0x8000d80
        0x08000a24:    2015        .       MOVS     r0,#0x15
        0x08000a26:    f000f9ab    ....    BL       LCD_WR_DATA ; 0x8000d80
        0x08000a2a:    2017        .       MOVS     r0,#0x17
        0x08000a2c:    f000f9a8    ....    BL       LCD_WR_DATA ; 0x8000d80
        0x08000a30:    2007        .       MOVS     r0,#7
        0x08000a32:    f000f9a5    ....    BL       LCD_WR_DATA ; 0x8000d80
        0x08000a36:    2011        .       MOVS     r0,#0x11
        0x08000a38:    f000f9a2    ....    BL       LCD_WR_DATA ; 0x8000d80
        0x08000a3c:    2006        .       MOVS     r0,#6
        0x08000a3e:    f000f99f    ....    BL       LCD_WR_DATA ; 0x8000d80
        0x08000a42:    202b        +       MOVS     r0,#0x2b
        0x08000a44:    f000f99c    ....    BL       LCD_WR_DATA ; 0x8000d80
        0x08000a48:    2056        V       MOVS     r0,#0x56
        0x08000a4a:    f000f999    ....    BL       LCD_WR_DATA ; 0x8000d80
        0x08000a4e:    203c        <       MOVS     r0,#0x3c
        0x08000a50:    f000f996    ....    BL       LCD_WR_DATA ; 0x8000d80
        0x08000a54:    2005        .       MOVS     r0,#5
        0x08000a56:    f000f993    ....    BL       LCD_WR_DATA ; 0x8000d80
        0x08000a5a:    2010        .       MOVS     r0,#0x10
        0x08000a5c:    f000f990    ....    BL       LCD_WR_DATA ; 0x8000d80
        0x08000a60:    200f        .       MOVS     r0,#0xf
        0x08000a62:    f000f98d    ....    BL       LCD_WR_DATA ; 0x8000d80
        0x08000a66:    203f        ?       MOVS     r0,#0x3f
        0x08000a68:    f000f98a    ....    BL       LCD_WR_DATA ; 0x8000d80
        0x08000a6c:    203f        ?       MOVS     r0,#0x3f
        0x08000a6e:    f000f987    ....    BL       LCD_WR_DATA ; 0x8000d80
        0x08000a72:    200f        .       MOVS     r0,#0xf
        0x08000a74:    f000f984    ....    BL       LCD_WR_DATA ; 0x8000d80
        0x08000a78:    202b        +       MOVS     r0,#0x2b
        0x08000a7a:    f000f987    ....    BL       LCD_WR_REG ; 0x8000d8c
        0x08000a7e:    2000        .       MOVS     r0,#0
        0x08000a80:    f000f97e    ..~.    BL       LCD_WR_DATA ; 0x8000d80
        0x08000a84:    2000        .       MOVS     r0,#0
        0x08000a86:    f000f97b    ..{.    BL       LCD_WR_DATA ; 0x8000d80
        0x08000a8a:    2001        .       MOVS     r0,#1
        0x08000a8c:    f000f978    ..x.    BL       LCD_WR_DATA ; 0x8000d80
        0x08000a90:    203f        ?       MOVS     r0,#0x3f
        0x08000a92:    f000f975    ..u.    BL       LCD_WR_DATA ; 0x8000d80
        0x08000a96:    202a        *       MOVS     r0,#0x2a
        0x08000a98:    f000f978    ..x.    BL       LCD_WR_REG ; 0x8000d8c
        0x08000a9c:    2000        .       MOVS     r0,#0
        0x08000a9e:    f000f96f    ..o.    BL       LCD_WR_DATA ; 0x8000d80
        0x08000aa2:    2000        .       MOVS     r0,#0
        0x08000aa4:    f000f96c    ..l.    BL       LCD_WR_DATA ; 0x8000d80
        0x08000aa8:    2000        .       MOVS     r0,#0
        0x08000aaa:    f000f969    ..i.    BL       LCD_WR_DATA ; 0x8000d80
        0x08000aae:    20ef        .       MOVS     r0,#0xef
        0x08000ab0:    f000f966    ..f.    BL       LCD_WR_DATA ; 0x8000d80
        0x08000ab4:    2011        .       MOVS     r0,#0x11
        0x08000ab6:    f000f969    ..i.    BL       LCD_WR_REG ; 0x8000d8c
        0x08000aba:    2078        x       MOVS     r0,#0x78
        0x08000abc:    f000fea6    ....    BL       delay_ms ; 0x800180c
        0x08000ac0:    2029        )       MOVS     r0,#0x29
        0x08000ac2:    f000f963    ..c.    BL       LCD_WR_REG ; 0x8000d8c
        0x08000ac6:    2000        .       MOVS     r0,#0
        0x08000ac8:    f7fffdea    ....    BL       LCD_Display_Dir ; 0x80006a0
        0x08000acc:    2101        .!      MOVS     r1,#1
        0x08000ace:    4808        .H      LDR      r0,[pc,#32] ; [0x8000af0] = 0x40010c00
        0x08000ad0:    f7fffdb3    ....    BL       GPIO_SetBit ; 0x800063a
        0x08000ad4:    f64f70ff    O..p    MOV      r0,#0xffff
        0x08000ad8:    f7fffdc8    ....    BL       LCD_Clear ; 0x800066c
        0x08000adc:    b00b        ..      ADD      sp,sp,#0x2c
        0x08000ade:    bd00        ..      POP      {pc}
    $d
        0x08000ae0:    40011400    ...@    DCD    1073812480
        0x08000ae4:    40011800    ...@    DCD    1073813504
        0x08000ae8:    40012000    . .@    DCD    1073815552
        0x08000aec:    2000000c    ...     DCD    536870924
        0x08000af0:    40010c00    ...@    DCD    1073810432
    $t
    i.LCD_RD_DATA
    LCD_RD_DATA
        0x08000af4:    b508        ..      PUSH     {r3,lr}
        0x08000af6:    4803        .H      LDR      r0,[pc,#12] ; [0x8000b04] = 0x6c000800
        0x08000af8:    8800        ..      LDRH     r0,[r0,#0]
        0x08000afa:    9000        ..      STR      r0,[sp,#0]
        0x08000afc:    f8bd0000    ....    LDRH     r0,[sp,#0]
        0x08000b00:    bd08        ..      POP      {r3,pc}
    $d
        0x08000b02:    0000        ..      DCW    0
        0x08000b04:    6c000800    ...l    DCD    1811941376
    $t
    i.LCD_Scan_Dir
    LCD_Scan_Dir
        0x08000b08:    b530        0.      PUSH     {r4,r5,lr}
        0x08000b0a:    4604        .F      MOV      r4,r0
        0x08000b0c:    2300        .#      MOVS     r3,#0
        0x08000b0e:    2500        .%      MOVS     r5,#0
        0x08000b10:    2c08        .,      CMP      r4,#8
        0x08000b12:    d21c        ..      BCS      0x8000b4e ; LCD_Scan_Dir + 70
        0x08000b14:    e8dff004    ....    TBB      [pc,r4]
    $d
        0x08000b18:    0c090604    ....    DCD    201917956
        0x08000b1c:    1815120f    ....    DCD    404034063
    $t
        0x08000b20:    bf00        ..      NOP      
        0x08000b22:    e014        ..      B        0x8000b4e ; LCD_Scan_Dir + 70
        0x08000b24:    f0430380    C...    ORR      r3,r3,#0x80
        0x08000b28:    e011        ..      B        0x8000b4e ; LCD_Scan_Dir + 70
        0x08000b2a:    f0430340    C.@.    ORR      r3,r3,#0x40
        0x08000b2e:    e00e        ..      B        0x8000b4e ; LCD_Scan_Dir + 70
        0x08000b30:    f04303c0    C...    ORR      r3,r3,#0xc0
        0x08000b34:    e00b        ..      B        0x8000b4e ; LCD_Scan_Dir + 70
        0x08000b36:    f0430320    C. .    ORR      r3,r3,#0x20
        0x08000b3a:    e008        ..      B        0x8000b4e ; LCD_Scan_Dir + 70
        0x08000b3c:    f0430360    C.`.    ORR      r3,r3,#0x60
        0x08000b40:    e005        ..      B        0x8000b4e ; LCD_Scan_Dir + 70
        0x08000b42:    f04303a0    C...    ORR      r3,r3,#0xa0
        0x08000b46:    e002        ..      B        0x8000b4e ; LCD_Scan_Dir + 70
        0x08000b48:    f04303e0    C...    ORR      r3,r3,#0xe0
        0x08000b4c:    bf00        ..      NOP      
        0x08000b4e:    bf00        ..      NOP      
        0x08000b50:    2536        6%      MOVS     r5,#0x36
        0x08000b52:    4619        .F      MOV      r1,r3
        0x08000b54:    4628        (F      MOV      r0,r5
        0x08000b56:    f000f929    ..).    BL       LCD_WriteReg ; 0x8000dac
        0x08000b5a:    4917        .I      LDR      r1,[pc,#92] ; [0x8000bb8] = 0x2000000c
        0x08000b5c:    8948        H.      LDRH     r0,[r1,#0xa]
        0x08000b5e:    f000f915    ....    BL       LCD_WR_REG ; 0x8000d8c
        0x08000b62:    2000        .       MOVS     r0,#0
        0x08000b64:    f000f90c    ....    BL       LCD_WR_DATA ; 0x8000d80
        0x08000b68:    2000        .       MOVS     r0,#0
        0x08000b6a:    f000f909    ....    BL       LCD_WR_DATA ; 0x8000d80
        0x08000b6e:    4912        .I      LDR      r1,[pc,#72] ; [0x8000bb8] = 0x2000000c
        0x08000b70:    8809        ..      LDRH     r1,[r1,#0]
        0x08000b72:    1e49        I.      SUBS     r1,r1,#1
        0x08000b74:    f3c1200f    ...     UBFX     r0,r1,#8,#16
        0x08000b78:    f000f902    ....    BL       LCD_WR_DATA ; 0x8000d80
        0x08000b7c:    490e        .I      LDR      r1,[pc,#56] ; [0x8000bb8] = 0x2000000c
        0x08000b7e:    7809        .x      LDRB     r1,[r1,#0]
        0x08000b80:    1e49        I.      SUBS     r1,r1,#1
        0x08000b82:    b2c8        ..      UXTB     r0,r1
        0x08000b84:    f000f8fc    ....    BL       LCD_WR_DATA ; 0x8000d80
        0x08000b88:    490b        .I      LDR      r1,[pc,#44] ; [0x8000bb8] = 0x2000000c
        0x08000b8a:    8988        ..      LDRH     r0,[r1,#0xc]
        0x08000b8c:    f000f8fe    ....    BL       LCD_WR_REG ; 0x8000d8c
        0x08000b90:    2000        .       MOVS     r0,#0
        0x08000b92:    f000f8f5    ....    BL       LCD_WR_DATA ; 0x8000d80
        0x08000b96:    2000        .       MOVS     r0,#0
        0x08000b98:    f000f8f2    ....    BL       LCD_WR_DATA ; 0x8000d80
        0x08000b9c:    4906        .I      LDR      r1,[pc,#24] ; [0x8000bb8] = 0x2000000c
        0x08000b9e:    8849        I.      LDRH     r1,[r1,#2]
        0x08000ba0:    1e49        I.      SUBS     r1,r1,#1
        0x08000ba2:    f3c1200f    ...     UBFX     r0,r1,#8,#16
        0x08000ba6:    f000f8eb    ....    BL       LCD_WR_DATA ; 0x8000d80
        0x08000baa:    4903        .I      LDR      r1,[pc,#12] ; [0x8000bb8] = 0x2000000c
        0x08000bac:    7889        .x      LDRB     r1,[r1,#2]
        0x08000bae:    1e49        I.      SUBS     r1,r1,#1
        0x08000bb0:    b2c8        ..      UXTB     r0,r1
        0x08000bb2:    f000f8e5    ....    BL       LCD_WR_DATA ; 0x8000d80
        0x08000bb6:    bd30        0.      POP      {r4,r5,pc}
    $d
        0x08000bb8:    2000000c    ...     DCD    536870924
    $t
    i.LCD_SetCursor
    LCD_SetCursor
        0x08000bbc:    b500        ..      PUSH     {lr}
        0x08000bbe:    4602        .F      MOV      r2,r0
        0x08000bc0:    460b        .F      MOV      r3,r1
        0x08000bc2:    490a        .I      LDR      r1,[pc,#40] ; [0x8000bec] = 0x2000000c
        0x08000bc4:    8948        H.      LDRH     r0,[r1,#0xa]
        0x08000bc6:    f000f8e1    ....    BL       LCD_WR_REG ; 0x8000d8c
        0x08000bca:    1210        ..      ASRS     r0,r2,#8
        0x08000bcc:    f000f8d8    ....    BL       LCD_WR_DATA ; 0x8000d80
        0x08000bd0:    b2d0        ..      UXTB     r0,r2
        0x08000bd2:    f000f8d5    ....    BL       LCD_WR_DATA ; 0x8000d80
        0x08000bd6:    4905        .I      LDR      r1,[pc,#20] ; [0x8000bec] = 0x2000000c
        0x08000bd8:    8988        ..      LDRH     r0,[r1,#0xc]
        0x08000bda:    f000f8d7    ....    BL       LCD_WR_REG ; 0x8000d8c
        0x08000bde:    1218        ..      ASRS     r0,r3,#8
        0x08000be0:    f000f8ce    ....    BL       LCD_WR_DATA ; 0x8000d80
        0x08000be4:    b2d8        ..      UXTB     r0,r3
        0x08000be6:    f000f8cb    ....    BL       LCD_WR_DATA ; 0x8000d80
        0x08000bea:    bd00        ..      POP      {pc}
    $d
        0x08000bec:    2000000c    ...     DCD    536870924
    $t
    i.LCD_ShowChar
    LCD_ShowChar
        0x08000bf0:    e92d4ff8    -..O    PUSH     {r3-r11,lr}
        0x08000bf4:    4680        .F      MOV      r8,r0
        0x08000bf6:    460e        .F      MOV      r6,r1
        0x08000bf8:    4617        .F      MOV      r7,r2
        0x08000bfa:    461c        .F      MOV      r4,r3
        0x08000bfc:    46b3        .F      MOV      r11,r6
        0x08000bfe:    4620         F      MOV      r0,r4
        0x08000c00:    17e3        ..      ASRS     r3,r4,#31
        0x08000c02:    eb047353    ..Ss    ADD      r3,r4,r3,LSR #29
        0x08000c06:    10db        ..      ASRS     r3,r3,#3
        0x08000c08:    4621        !F      MOV      r1,r4
        0x08000c0a:    ea4f7ce4    O..|    ASR      r12,r4,#31
        0x08000c0e:    eb047c5c    ..\|    ADD      r12,r4,r12,LSR #29
        0x08000c12:    ea4f0cec    O...    ASR      r12,r12,#3
        0x08000c16:    eba40ccc    ....    SUB      r12,r4,r12,LSL #3
        0x08000c1a:    f1bc0f00    ....    CMP      r12,#0
        0x08000c1e:    d002        ..      BEQ      0x8000c26 ; LCD_ShowChar + 54
        0x08000c20:    f04f0c01    O...    MOV      r12,#1
        0x08000c24:    e001        ..      B        0x8000c2a ; LCD_ShowChar + 58
        0x08000c26:    f04f0c00    O...    MOV      r12,#0
        0x08000c2a:    4463        cD      ADD      r3,r3,r12
        0x08000c2c:    4622        "F      MOV      r2,r4
        0x08000c2e:    eb047cd2    ...|    ADD      r12,r4,r2,LSR #31
        0x08000c32:    ea4f0c6c    O.l.    ASR      r12,r12,#1
        0x08000c36:    fb03f30c    ....    MUL      r3,r3,r12
        0x08000c3a:    b2db        ..      UXTB     r3,r3
        0x08000c3c:    9300        ..      STR      r3,[sp,#0]
        0x08000c3e:    f1a70020    .. .    SUB      r0,r7,#0x20
        0x08000c42:    b2c7        ..      UXTB     r7,r0
        0x08000c44:    2500        .%      MOVS     r5,#0
        0x08000c46:    e056        V.      B        0x8000cf6 ; LCD_ShowChar + 262
        0x08000c48:    2c0c        .,      CMP      r4,#0xc
        0x08000c4a:    d107        ..      BNE      0x8000c5c ; LCD_ShowChar + 108
        0x08000c4c:    eb070047    ..G.    ADD      r0,r7,r7,LSL #1
        0x08000c50:    492b        +I      LDR      r1,[pc,#172] ; [0x8000d00] = 0x80019e4
        0x08000c52:    eb010080    ....    ADD      r0,r1,r0,LSL #2
        0x08000c56:    f8109005    ....    LDRB     r9,[r0,r5]
        0x08000c5a:    e013        ..      B        0x8000c84 ; LCD_ShowChar + 148
        0x08000c5c:    2c10        .,      CMP      r4,#0x10
        0x08000c5e:    d105        ..      BNE      0x8000c6c ; LCD_ShowChar + 124
        0x08000c60:    4828        (H      LDR      r0,[pc,#160] ; [0x8000d04] = 0x8001e58
        0x08000c62:    eb001007    ....    ADD      r0,r0,r7,LSL #4
        0x08000c66:    f8109005    ....    LDRB     r9,[r0,r5]
        0x08000c6a:    e00b        ..      B        0x8000c84 ; LCD_ShowChar + 148
        0x08000c6c:    2c18        .,      CMP      r4,#0x18
        0x08000c6e:    d107        ..      BNE      0x8000c80 ; LCD_ShowChar + 144
        0x08000c70:    eb0700c7    ....    ADD      r0,r7,r7,LSL #3
        0x08000c74:    4924        $I      LDR      r1,[pc,#144] ; [0x8000d08] = 0x8002448
        0x08000c76:    eb010080    ....    ADD      r0,r1,r0,LSL #2
        0x08000c7a:    f8109005    ....    LDRB     r9,[r0,r5]
        0x08000c7e:    e001        ..      B        0x8000c84 ; LCD_ShowChar + 148
        0x08000c80:    e8bd8ff8    ....    POP      {r3-r11,pc}
        0x08000c84:    f04f0a00    O...    MOV      r10,#0
        0x08000c88:    e02f        /.      B        0x8000cea ; LCD_ShowChar + 250
        0x08000c8a:    f0090080    ....    AND      r0,r9,#0x80
        0x08000c8e:    b130        0.      CBZ      r0,0x8000c9e ; LCD_ShowChar + 174
        0x08000c90:    481e        .H      LDR      r0,[pc,#120] ; [0x8000d0c] = 0x20000008
        0x08000c92:    8802        ..      LDRH     r2,[r0,#0]
        0x08000c94:    4631        1F      MOV      r1,r6
        0x08000c96:    4640        @F      MOV      r0,r8
        0x08000c98:    f7fffd28    ..(.    BL       LCD_Fast_DrawPoint ; 0x80006ec
        0x08000c9c:    e007        ..      B        0x8000cae ; LCD_ShowChar + 190
        0x08000c9e:    980a        ..      LDR      r0,[sp,#0x28]
        0x08000ca0:    b928        (.      CBNZ     r0,0x8000cae ; LCD_ShowChar + 190
        0x08000ca2:    481b        .H      LDR      r0,[pc,#108] ; [0x8000d10] = 0x2000000a
        0x08000ca4:    8802        ..      LDRH     r2,[r0,#0]
        0x08000ca6:    4631        1F      MOV      r1,r6
        0x08000ca8:    4640        @F      MOV      r0,r8
        0x08000caa:    f7fffd1f    ....    BL       LCD_Fast_DrawPoint ; 0x80006ec
        0x08000cae:    ea4f6049    O.I`    LSL      r0,r9,#25
        0x08000cb2:    ea4f6910    O..i    LSR      r9,r0,#24
        0x08000cb6:    1c70        p.      ADDS     r0,r6,#1
        0x08000cb8:    b286        ..      UXTH     r6,r0
        0x08000cba:    4816        .H      LDR      r0,[pc,#88] ; [0x8000d14] = 0x2000000c
        0x08000cbc:    8840        @.      LDRH     r0,[r0,#2]
        0x08000cbe:    42b0        .B      CMP      r0,r6
        0x08000cc0:    dc00        ..      BGT      0x8000cc4 ; LCD_ShowChar + 212
        0x08000cc2:    e7dd        ..      B        0x8000c80 ; LCD_ShowChar + 144
        0x08000cc4:    eba6000b    ....    SUB      r0,r6,r11
        0x08000cc8:    42a0        .B      CMP      r0,r4
        0x08000cca:    d10a        ..      BNE      0x8000ce2 ; LCD_ShowChar + 242
        0x08000ccc:    465e        ^F      MOV      r6,r11
        0x08000cce:    f1080001    ....    ADD      r0,r8,#1
        0x08000cd2:    fa1ff880    ....    UXTH     r8,r0
        0x08000cd6:    480f        .H      LDR      r0,[pc,#60] ; [0x8000d14] = 0x2000000c
        0x08000cd8:    8800        ..      LDRH     r0,[r0,#0]
        0x08000cda:    4540        @E      CMP      r0,r8
        0x08000cdc:    dc00        ..      BGT      0x8000ce0 ; LCD_ShowChar + 240
        0x08000cde:    e7cf        ..      B        0x8000c80 ; LCD_ShowChar + 144
        0x08000ce0:    e006        ..      B        0x8000cf0 ; LCD_ShowChar + 256
        0x08000ce2:    f10a0001    ....    ADD      r0,r10,#1
        0x08000ce6:    f0000aff    ....    AND      r10,r0,#0xff
        0x08000cea:    f1ba0f08    ....    CMP      r10,#8
        0x08000cee:    dbcc        ..      BLT      0x8000c8a ; LCD_ShowChar + 154
        0x08000cf0:    bf00        ..      NOP      
        0x08000cf2:    1c68        h.      ADDS     r0,r5,#1
        0x08000cf4:    b2c5        ..      UXTB     r5,r0
        0x08000cf6:    9800        ..      LDR      r0,[sp,#0]
        0x08000cf8:    4285        .B      CMP      r5,r0
        0x08000cfa:    dba5        ..      BLT      0x8000c48 ; LCD_ShowChar + 88
        0x08000cfc:    bf00        ..      NOP      
        0x08000cfe:    e7bf        ..      B        0x8000c80 ; LCD_ShowChar + 144
    $d
        0x08000d00:    080019e4    ....    DCD    134224356
        0x08000d04:    08001e58    X...    DCD    134225496
        0x08000d08:    08002448    H$..    DCD    134227016
        0x08000d0c:    20000008    ...     DCD    536870920
        0x08000d10:    2000000a    ...     DCD    536870922
        0x08000d14:    2000000c    ...     DCD    536870924
    $t
    i.LCD_ShowString
    LCD_ShowString
        0x08000d18:    e92d47f8    -..G    PUSH     {r3-r10,lr}
        0x08000d1c:    4604        .F      MOV      r4,r0
        0x08000d1e:    460d        .F      MOV      r5,r1
        0x08000d20:    4690        .F      MOV      r8,r2
        0x08000d22:    4699        .F      MOV      r9,r3
        0x08000d24:    e9dd6709    ...g    LDRD     r6,r7,[sp,#0x24]
        0x08000d28:    f0040aff    ....    AND      r10,r4,#0xff
        0x08000d2c:    eb080004    ....    ADD      r0,r8,r4
        0x08000d30:    fa1ff880    ....    UXTH     r8,r0
        0x08000d34:    eb090005    ....    ADD      r0,r9,r5
        0x08000d38:    fa1ff980    ....    UXTH     r9,r0
        0x08000d3c:    e016        ..      B        0x8000d6c ; LCD_ShowString + 84
        0x08000d3e:    4544        DE      CMP      r4,r8
        0x08000d40:    db02        ..      BLT      0x8000d48 ; LCD_ShowString + 48
        0x08000d42:    4654        TF      MOV      r4,r10
        0x08000d44:    19a8        ..      ADDS     r0,r5,r6
        0x08000d46:    b285        ..      UXTH     r5,r0
        0x08000d48:    454d        ME      CMP      r5,r9
        0x08000d4a:    db00        ..      BLT      0x8000d4e ; LCD_ShowString + 54
        0x08000d4c:    e014        ..      B        0x8000d78 ; LCD_ShowString + 96
        0x08000d4e:    2000        .       MOVS     r0,#0
        0x08000d50:    9000        ..      STR      r0,[sp,#0]
        0x08000d52:    783a        :x      LDRB     r2,[r7,#0]
        0x08000d54:    4633        3F      MOV      r3,r6
        0x08000d56:    4629        )F      MOV      r1,r5
        0x08000d58:    4620         F      MOV      r0,r4
        0x08000d5a:    f7ffff49    ..I.    BL       LCD_ShowChar ; 0x8000bf0
        0x08000d5e:    4630        0F      MOV      r0,r6
        0x08000d60:    eb0671d0    ...q    ADD      r1,r6,r0,LSR #31
        0x08000d64:    eb040161    ..a.    ADD      r1,r4,r1,ASR #1
        0x08000d68:    b28c        ..      UXTH     r4,r1
        0x08000d6a:    1c7f        ..      ADDS     r7,r7,#1
        0x08000d6c:    7838        8x      LDRB     r0,[r7,#0]
        0x08000d6e:    287e        ~(      CMP      r0,#0x7e
        0x08000d70:    dc02        ..      BGT      0x8000d78 ; LCD_ShowString + 96
        0x08000d72:    7838        8x      LDRB     r0,[r7,#0]
        0x08000d74:    2820         (      CMP      r0,#0x20
        0x08000d76:    dae2        ..      BGE      0x8000d3e ; LCD_ShowString + 38
        0x08000d78:    bf00        ..      NOP      
        0x08000d7a:    e8bd87f8    ....    POP      {r3-r10,pc}
        0x08000d7e:    0000        ..      MOVS     r0,r0
    i.LCD_WR_DATA
    LCD_WR_DATA
        0x08000d80:    4901        .I      LDR      r1,[pc,#4] ; [0x8000d88] = 0x6c000800
        0x08000d82:    8008        ..      STRH     r0,[r1,#0]
        0x08000d84:    4770        pG      BX       lr
    $d
        0x08000d86:    0000        ..      DCW    0
        0x08000d88:    6c000800    ...l    DCD    1811941376
    $t
    i.LCD_WR_REG
    LCD_WR_REG
        0x08000d8c:    4901        .I      LDR      r1,[pc,#4] ; [0x8000d94] = 0x6c0007fe
        0x08000d8e:    8008        ..      STRH     r0,[r1,#0]
        0x08000d90:    4770        pG      BX       lr
    $d
        0x08000d92:    0000        ..      DCW    0
        0x08000d94:    6c0007fe    ...l    DCD    1811941374
    $t
    i.LCD_WriteRAM_Prepare
    LCD_WriteRAM_Prepare
        0x08000d98:    4802        .H      LDR      r0,[pc,#8] ; [0x8000da4] = 0x2000000c
        0x08000d9a:    8900        ..      LDRH     r0,[r0,#8]
        0x08000d9c:    4902        .I      LDR      r1,[pc,#8] ; [0x8000da8] = 0x6c0007fe
        0x08000d9e:    8008        ..      STRH     r0,[r1,#0]
        0x08000da0:    4770        pG      BX       lr
    $d
        0x08000da2:    0000        ..      DCW    0
        0x08000da4:    2000000c    ...     DCD    536870924
        0x08000da8:    6c0007fe    ...l    DCD    1811941374
    $t
    i.LCD_WriteReg
    LCD_WriteReg
        0x08000dac:    4a02        .J      LDR      r2,[pc,#8] ; [0x8000db8] = 0x6c0007fe
        0x08000dae:    8010        ..      STRH     r0,[r2,#0]
        0x08000db0:    1c92        ..      ADDS     r2,r2,#2
        0x08000db2:    8011        ..      STRH     r1,[r2,#0]
        0x08000db4:    4770        pG      BX       lr
    $d
        0x08000db6:    0000        ..      DCW    0
        0x08000db8:    6c0007fe    ...l    DCD    1811941374
    $t
    i.MemManage_Handler
    MemManage_Handler
        0x08000dbc:    bf00        ..      NOP      
        0x08000dbe:    e7fe        ..      B        0x8000dbe ; MemManage_Handler + 2
    i.NMI_Handler
    NMI_Handler
        0x08000dc0:    4770        pG      BX       lr
    i.PendSV_Handler
    PendSV_Handler
        0x08000dc2:    4770        pG      BX       lr
    i.RCM_EnableAHBPeriphClock
    RCM_EnableAHBPeriphClock
        0x08000dc4:    4902        .I      LDR      r1,[pc,#8] ; [0x8000dd0] = 0x40021000
        0x08000dc6:    6949        Ii      LDR      r1,[r1,#0x14]
        0x08000dc8:    4301        .C      ORRS     r1,r1,r0
        0x08000dca:    4a01        .J      LDR      r2,[pc,#4] ; [0x8000dd0] = 0x40021000
        0x08000dcc:    6151        Qa      STR      r1,[r2,#0x14]
        0x08000dce:    4770        pG      BX       lr
    $d
        0x08000dd0:    40021000    ...@    DCD    1073876992
    $t
    i.RCM_EnableAPB2PeriphClock
    RCM_EnableAPB2PeriphClock
        0x08000dd4:    4902        .I      LDR      r1,[pc,#8] ; [0x8000de0] = 0x40021000
        0x08000dd6:    6989        .i      LDR      r1,[r1,#0x18]
        0x08000dd8:    4301        .C      ORRS     r1,r1,r0
        0x08000dda:    4a01        .J      LDR      r2,[pc,#4] ; [0x8000de0] = 0x40021000
        0x08000ddc:    6191        .a      STR      r1,[r2,#0x18]
        0x08000dde:    4770        pG      BX       lr
    $d
        0x08000de0:    40021000    ...@    DCD    1073876992
    $t
    i.SMC_ConfigNORSRAM
    SMC_ConfigNORSRAM
        0x08000de4:    7801        .x      LDRB     r1,[r0,#0]
        0x08000de6:    2900        .)      CMP      r1,#0
        0x08000de8:    d17e        ~.      BNE      0x8000ee8 ; SMC_ConfigNORSRAM + 260
        0x08000dea:    7842        Bx      LDRB     r2,[r0,#1]
        0x08000dec:    f04f4120    O. A    MOV      r1,#0xa0000000
        0x08000df0:    6809        .h      LDR      r1,[r1,#0]
        0x08000df2:    f3620141    b.A.    BFI      r1,r2,#1,#1
        0x08000df6:    f04f4220    O. B    MOV      r2,#0xa0000000
        0x08000dfa:    6011        .`      STR      r1,[r2,#0]
        0x08000dfc:    7882        .x      LDRB     r2,[r0,#2]
        0x08000dfe:    f04f4120    O. A    MOV      r1,#0xa0000000
        0x08000e02:    6809        .h      LDR      r1,[r1,#0]
        0x08000e04:    f3620183    b...    BFI      r1,r2,#2,#2
        0x08000e08:    f04f4220    O. B    MOV      r2,#0xa0000000
        0x08000e0c:    6011        .`      STR      r1,[r2,#0]
        0x08000e0e:    78c2        .x      LDRB     r2,[r0,#3]
        0x08000e10:    f04f4120    O. A    MOV      r1,#0xa0000000
        0x08000e14:    6809        .h      LDR      r1,[r1,#0]
        0x08000e16:    f3621105    b...    BFI      r1,r2,#4,#2
        0x08000e1a:    f04f4220    O. B    MOV      r2,#0xa0000000
        0x08000e1e:    6011        .`      STR      r1,[r2,#0]
        0x08000e20:    7902        .y      LDRB     r2,[r0,#4]
        0x08000e22:    f04f4120    O. A    MOV      r1,#0xa0000000
        0x08000e26:    6809        .h      LDR      r1,[r1,#0]
        0x08000e28:    f3622108    b..!    BFI      r1,r2,#8,#1
        0x08000e2c:    f04f4220    O. B    MOV      r2,#0xa0000000
        0x08000e30:    6011        .`      STR      r1,[r2,#0]
        0x08000e32:    7942        By      LDRB     r2,[r0,#5]
        0x08000e34:    f04f4120    O. A    MOV      r1,#0xa0000000
        0x08000e38:    6809        .h      LDR      r1,[r1,#0]
        0x08000e3a:    f36231cf    b..1    BFI      r1,r2,#15,#1
        0x08000e3e:    f04f4220    O. B    MOV      r2,#0xa0000000
        0x08000e42:    6011        .`      STR      r1,[r2,#0]
        0x08000e44:    7982        .y      LDRB     r2,[r0,#6]
        0x08000e46:    f04f4120    O. A    MOV      r1,#0xa0000000
        0x08000e4a:    6809        .h      LDR      r1,[r1,#0]
        0x08000e4c:    f3622149    b.I!    BFI      r1,r2,#9,#1
        0x08000e50:    f04f4220    O. B    MOV      r2,#0xa0000000
        0x08000e54:    6011        .`      STR      r1,[r2,#0]
        0x08000e56:    79c2        .y      LDRB     r2,[r0,#7]
        0x08000e58:    f04f4120    O. A    MOV      r1,#0xa0000000
        0x08000e5c:    6809        .h      LDR      r1,[r1,#0]
        0x08000e5e:    f362218a    b..!    BFI      r1,r2,#10,#1
        0x08000e62:    f04f4220    O. B    MOV      r2,#0xa0000000
        0x08000e66:    6011        .`      STR      r1,[r2,#0]
        0x08000e68:    7a02        .z      LDRB     r2,[r0,#8]
        0x08000e6a:    f04f4120    O. A    MOV      r1,#0xa0000000
        0x08000e6e:    6809        .h      LDR      r1,[r1,#0]
        0x08000e70:    f36221cb    b..!    BFI      r1,r2,#11,#1
        0x08000e74:    f04f4220    O. B    MOV      r2,#0xa0000000
        0x08000e78:    6011        .`      STR      r1,[r2,#0]
        0x08000e7a:    7a42        Bz      LDRB     r2,[r0,#9]
        0x08000e7c:    f04f4120    O. A    MOV      r1,#0xa0000000
        0x08000e80:    6809        .h      LDR      r1,[r1,#0]
        0x08000e82:    f362310c    b..1    BFI      r1,r2,#12,#1
        0x08000e86:    f04f4220    O. B    MOV      r2,#0xa0000000
        0x08000e8a:    6011        .`      STR      r1,[r2,#0]
        0x08000e8c:    7a82        .z      LDRB     r2,[r0,#0xa]
        0x08000e8e:    f04f4120    O. A    MOV      r1,#0xa0000000
        0x08000e92:    6809        .h      LDR      r1,[r1,#0]
        0x08000e94:    f362314d    b.M1    BFI      r1,r2,#13,#1
        0x08000e98:    f04f4220    O. B    MOV      r2,#0xa0000000
        0x08000e9c:    6011        .`      STR      r1,[r2,#0]
        0x08000e9e:    7ac2        .z      LDRB     r2,[r0,#0xb]
        0x08000ea0:    f04f4120    O. A    MOV      r1,#0xa0000000
        0x08000ea4:    6809        .h      LDR      r1,[r1,#0]
        0x08000ea6:    f362318e    b..1    BFI      r1,r2,#14,#1
        0x08000eaa:    f04f4220    O. B    MOV      r2,#0xa0000000
        0x08000eae:    6011        .`      STR      r1,[r2,#0]
        0x08000eb0:    7b02        .{      LDRB     r2,[r0,#0xc]
        0x08000eb2:    f04f4120    O. A    MOV      r1,#0xa0000000
        0x08000eb6:    6809        .h      LDR      r1,[r1,#0]
        0x08000eb8:    f36241d3    b..A    BFI      r1,r2,#19,#1
        0x08000ebc:    f04f4220    O. B    MOV      r2,#0xa0000000
        0x08000ec0:    6011        .`      STR      r1,[r2,#0]
        0x08000ec2:    7881        .x      LDRB     r1,[r0,#2]
        0x08000ec4:    2902        .)      CMP      r1,#2
        0x08000ec6:    d105        ..      BNE      0x8000ed4 ; SMC_ConfigNORSRAM + 240
        0x08000ec8:    4611        .F      MOV      r1,r2
        0x08000eca:    6809        .h      LDR      r1,[r1,#0]
        0x08000ecc:    f0210140    !.@.    BIC      r1,r1,#0x40
        0x08000ed0:    3140        @1      ADDS     r1,r1,#0x40
        0x08000ed2:    6011        .`      STR      r1,[r2,#0]
        0x08000ed4:    6901        .i      LDR      r1,[r0,#0x10]
        0x08000ed6:    780a        .x      LDRB     r2,[r1,#0]
        0x08000ed8:    f04f4120    O. A    MOV      r1,#0xa0000000
        0x08000edc:    6849        Ih      LDR      r1,[r1,#4]
        0x08000ede:    f3620103    b...    BFI      r1,r2,#0,#4
        0x08000ee2:    f04f4220    O. B    MOV      r2,#0xa0000000
        0x08000ee6:    e000        ..      B        0x8000eea ; SMC_ConfigNORSRAM + 262
        0x08000ee8:    e077        w.      B        0x8000fda ; SMC_ConfigNORSRAM + 502
        0x08000eea:    6051        Q`      STR      r1,[r2,#4]
        0x08000eec:    6901        .i      LDR      r1,[r0,#0x10]
        0x08000eee:    784a        Jx      LDRB     r2,[r1,#1]
        0x08000ef0:    f04f4120    O. A    MOV      r1,#0xa0000000
        0x08000ef4:    6849        Ih      LDR      r1,[r1,#4]
        0x08000ef6:    f3621107    b...    BFI      r1,r2,#4,#4
        0x08000efa:    f04f4220    O. B    MOV      r2,#0xa0000000
        0x08000efe:    6051        Q`      STR      r1,[r2,#4]
        0x08000f00:    6901        .i      LDR      r1,[r0,#0x10]
        0x08000f02:    788a        .x      LDRB     r2,[r1,#2]
        0x08000f04:    f04f4120    O. A    MOV      r1,#0xa0000000
        0x08000f08:    6849        Ih      LDR      r1,[r1,#4]
        0x08000f0a:    f362210f    b..!    BFI      r1,r2,#8,#8
        0x08000f0e:    f04f4220    O. B    MOV      r2,#0xa0000000
        0x08000f12:    6051        Q`      STR      r1,[r2,#4]
        0x08000f14:    6901        .i      LDR      r1,[r0,#0x10]
        0x08000f16:    78ca        .x      LDRB     r2,[r1,#3]
        0x08000f18:    f04f4120    O. A    MOV      r1,#0xa0000000
        0x08000f1c:    6849        Ih      LDR      r1,[r1,#4]
        0x08000f1e:    f3624113    b..A    BFI      r1,r2,#16,#4
        0x08000f22:    f04f4220    O. B    MOV      r2,#0xa0000000
        0x08000f26:    6051        Q`      STR      r1,[r2,#4]
        0x08000f28:    6901        .i      LDR      r1,[r0,#0x10]
        0x08000f2a:    790a        .y      LDRB     r2,[r1,#4]
        0x08000f2c:    f04f4120    O. A    MOV      r1,#0xa0000000
        0x08000f30:    6849        Ih      LDR      r1,[r1,#4]
        0x08000f32:    f3625117    b..Q    BFI      r1,r2,#20,#4
        0x08000f36:    f04f4220    O. B    MOV      r2,#0xa0000000
        0x08000f3a:    6051        Q`      STR      r1,[r2,#4]
        0x08000f3c:    6901        .i      LDR      r1,[r0,#0x10]
        0x08000f3e:    794a        Jy      LDRB     r2,[r1,#5]
        0x08000f40:    f04f4120    O. A    MOV      r1,#0xa0000000
        0x08000f44:    6849        Ih      LDR      r1,[r1,#4]
        0x08000f46:    f362611b    b..a    BFI      r1,r2,#24,#4
        0x08000f4a:    f04f4220    O. B    MOV      r2,#0xa0000000
        0x08000f4e:    6051        Q`      STR      r1,[r2,#4]
        0x08000f50:    6901        .i      LDR      r1,[r0,#0x10]
        0x08000f52:    798a        .y      LDRB     r2,[r1,#6]
        0x08000f54:    f04f4120    O. A    MOV      r1,#0xa0000000
        0x08000f58:    6849        Ih      LDR      r1,[r1,#4]
        0x08000f5a:    f362711d    b..q    BFI      r1,r2,#28,#2
        0x08000f5e:    f04f4220    O. B    MOV      r2,#0xa0000000
        0x08000f62:    6051        Q`      STR      r1,[r2,#4]
        0x08000f64:    7ac1        .z      LDRB     r1,[r0,#0xb]
        0x08000f66:    2901        .)      CMP      r1,#1
        0x08000f68:    d132        2.      BNE      0x8000fd0 ; SMC_ConfigNORSRAM + 492
        0x08000f6a:    6941        Ai      LDR      r1,[r0,#0x14]
        0x08000f6c:    780a        .x      LDRB     r2,[r1,#0]
        0x08000f6e:    49fe        .I      LDR      r1,[pc,#1016] ; [0x8001368] = 0xa0000104
        0x08000f70:    6809        .h      LDR      r1,[r1,#0]
        0x08000f72:    f3620103    b...    BFI      r1,r2,#0,#4
        0x08000f76:    4afc        .J      LDR      r2,[pc,#1008] ; [0x8001368] = 0xa0000104
        0x08000f78:    6011        .`      STR      r1,[r2,#0]
        0x08000f7a:    6941        Ai      LDR      r1,[r0,#0x14]
        0x08000f7c:    784a        Jx      LDRB     r2,[r1,#1]
        0x08000f7e:    f04f4120    O. A    MOV      r1,#0xa0000000
        0x08000f82:    f8d11104    ....    LDR      r1,[r1,#0x104]
        0x08000f86:    f3621107    b...    BFI      r1,r2,#4,#4
        0x08000f8a:    4af7        .J      LDR      r2,[pc,#988] ; [0x8001368] = 0xa0000104
        0x08000f8c:    6011        .`      STR      r1,[r2,#0]
        0x08000f8e:    6941        Ai      LDR      r1,[r0,#0x14]
        0x08000f90:    788a        .x      LDRB     r2,[r1,#2]
        0x08000f92:    f04f4120    O. A    MOV      r1,#0xa0000000
        0x08000f96:    f8d11104    ....    LDR      r1,[r1,#0x104]
        0x08000f9a:    f362210f    b..!    BFI      r1,r2,#8,#8
        0x08000f9e:    4af2        .J      LDR      r2,[pc,#968] ; [0x8001368] = 0xa0000104
        0x08000fa0:    6011        .`      STR      r1,[r2,#0]
        0x08000fa2:    6941        Ai      LDR      r1,[r0,#0x14]
        0x08000fa4:    78ca        .x      LDRB     r2,[r1,#3]
        0x08000fa6:    f04f4120    O. A    MOV      r1,#0xa0000000
        0x08000faa:    f8d11104    ....    LDR      r1,[r1,#0x104]
        0x08000fae:    f3624113    b..A    BFI      r1,r2,#16,#4
        0x08000fb2:    4aed        .J      LDR      r2,[pc,#948] ; [0x8001368] = 0xa0000104
        0x08000fb4:    6011        .`      STR      r1,[r2,#0]
        0x08000fb6:    6941        Ai      LDR      r1,[r0,#0x14]
        0x08000fb8:    798a        .y      LDRB     r2,[r1,#6]
        0x08000fba:    f04f4120    O. A    MOV      r1,#0xa0000000
        0x08000fbe:    f8d11104    ....    LDR      r1,[r1,#0x104]
        0x08000fc2:    f362711d    b..q    BFI      r1,r2,#28,#2
        0x08000fc6:    f04f4220    O. B    MOV      r2,#0xa0000000
        0x08000fca:    f8c21104    ....    STR      r1,[r2,#0x104]
        0x08000fce:    e307        ..      B        0x80015e0 ; SMC_ConfigNORSRAM + 2044
        0x08000fd0:    f06f4170    o.pA    MVN      r1,#0xf0000000
        0x08000fd4:    4ae4        .J      LDR      r2,[pc,#912] ; [0x8001368] = 0xa0000104
        0x08000fd6:    6011        .`      STR      r1,[r2,#0]
        0x08000fd8:    e302        ..      B        0x80015e0 ; SMC_ConfigNORSRAM + 2044
        0x08000fda:    7801        .x      LDRB     r1,[r0,#0]
        0x08000fdc:    2901        .)      CMP      r1,#1
        0x08000fde:    d17c        |.      BNE      0x80010da ; SMC_ConfigNORSRAM + 758
        0x08000fe0:    7842        Bx      LDRB     r2,[r0,#1]
        0x08000fe2:    f04f4120    O. A    MOV      r1,#0xa0000000
        0x08000fe6:    6889        .h      LDR      r1,[r1,#8]
        0x08000fe8:    f3620141    b.A.    BFI      r1,r2,#1,#1
        0x08000fec:    f04f4220    O. B    MOV      r2,#0xa0000000
        0x08000ff0:    6091        .`      STR      r1,[r2,#8]
        0x08000ff2:    7882        .x      LDRB     r2,[r0,#2]
        0x08000ff4:    f04f4120    O. A    MOV      r1,#0xa0000000
        0x08000ff8:    6889        .h      LDR      r1,[r1,#8]
        0x08000ffa:    f3620183    b...    BFI      r1,r2,#2,#2
        0x08000ffe:    f04f4220    O. B    MOV      r2,#0xa0000000
        0x08001002:    6091        .`      STR      r1,[r2,#8]
        0x08001004:    78c2        .x      LDRB     r2,[r0,#3]
        0x08001006:    f04f4120    O. A    MOV      r1,#0xa0000000
        0x0800100a:    6889        .h      LDR      r1,[r1,#8]
        0x0800100c:    f3621105    b...    BFI      r1,r2,#4,#2
        0x08001010:    f04f4220    O. B    MOV      r2,#0xa0000000
        0x08001014:    6091        .`      STR      r1,[r2,#8]
        0x08001016:    7902        .y      LDRB     r2,[r0,#4]
        0x08001018:    f04f4120    O. A    MOV      r1,#0xa0000000
        0x0800101c:    6889        .h      LDR      r1,[r1,#8]
        0x0800101e:    f3622108    b..!    BFI      r1,r2,#8,#1
        0x08001022:    f04f4220    O. B    MOV      r2,#0xa0000000
        0x08001026:    6091        .`      STR      r1,[r2,#8]
        0x08001028:    7942        By      LDRB     r2,[r0,#5]
        0x0800102a:    f04f4120    O. A    MOV      r1,#0xa0000000
        0x0800102e:    6889        .h      LDR      r1,[r1,#8]
        0x08001030:    f36231cf    b..1    BFI      r1,r2,#15,#1
        0x08001034:    f04f4220    O. B    MOV      r2,#0xa0000000
        0x08001038:    6091        .`      STR      r1,[r2,#8]
        0x0800103a:    7982        .y      LDRB     r2,[r0,#6]
        0x0800103c:    f04f4120    O. A    MOV      r1,#0xa0000000
        0x08001040:    6889        .h      LDR      r1,[r1,#8]
        0x08001042:    f3622149    b.I!    BFI      r1,r2,#9,#1
        0x08001046:    f04f4220    O. B    MOV      r2,#0xa0000000
        0x0800104a:    6091        .`      STR      r1,[r2,#8]
        0x0800104c:    79c2        .y      LDRB     r2,[r0,#7]
        0x0800104e:    f04f4120    O. A    MOV      r1,#0xa0000000
        0x08001052:    6889        .h      LDR      r1,[r1,#8]
        0x08001054:    f362218a    b..!    BFI      r1,r2,#10,#1
        0x08001058:    f04f4220    O. B    MOV      r2,#0xa0000000
        0x0800105c:    6091        .`      STR      r1,[r2,#8]
        0x0800105e:    7a02        .z      LDRB     r2,[r0,#8]
        0x08001060:    f04f4120    O. A    MOV      r1,#0xa0000000
        0x08001064:    6889        .h      LDR      r1,[r1,#8]
        0x08001066:    f36221cb    b..!    BFI      r1,r2,#11,#1
        0x0800106a:    f04f4220    O. B    MOV      r2,#0xa0000000
        0x0800106e:    6091        .`      STR      r1,[r2,#8]
        0x08001070:    7a42        Bz      LDRB     r2,[r0,#9]
        0x08001072:    f04f4120    O. A    MOV      r1,#0xa0000000
        0x08001076:    6889        .h      LDR      r1,[r1,#8]
        0x08001078:    f362310c    b..1    BFI      r1,r2,#12,#1
        0x0800107c:    f04f4220    O. B    MOV      r2,#0xa0000000
        0x08001080:    6091        .`      STR      r1,[r2,#8]
        0x08001082:    7a82        .z      LDRB     r2,[r0,#0xa]
        0x08001084:    f04f4120    O. A    MOV      r1,#0xa0000000
        0x08001088:    6889        .h      LDR      r1,[r1,#8]
        0x0800108a:    f362314d    b.M1    BFI      r1,r2,#13,#1
        0x0800108e:    f04f4220    O. B    MOV      r2,#0xa0000000
        0x08001092:    6091        .`      STR      r1,[r2,#8]
        0x08001094:    7ac2        .z      LDRB     r2,[r0,#0xb]
        0x08001096:    f04f4120    O. A    MOV      r1,#0xa0000000
        0x0800109a:    6889        .h      LDR      r1,[r1,#8]
        0x0800109c:    f362318e    b..1    BFI      r1,r2,#14,#1
        0x080010a0:    f04f4220    O. B    MOV      r2,#0xa0000000
        0x080010a4:    6091        .`      STR      r1,[r2,#8]
        0x080010a6:    7b02        .{      LDRB     r2,[r0,#0xc]
        0x080010a8:    f04f4120    O. A    MOV      r1,#0xa0000000
        0x080010ac:    6889        .h      LDR      r1,[r1,#8]
        0x080010ae:    f36241d3    b..A    BFI      r1,r2,#19,#1
        0x080010b2:    f04f4220    O. B    MOV      r2,#0xa0000000
        0x080010b6:    6091        .`      STR      r1,[r2,#8]
        0x080010b8:    7881        .x      LDRB     r1,[r0,#2]
        0x080010ba:    2902        .)      CMP      r1,#2
        0x080010bc:    d105        ..      BNE      0x80010ca ; SMC_ConfigNORSRAM + 742
        0x080010be:    4611        .F      MOV      r1,r2
        0x080010c0:    6889        .h      LDR      r1,[r1,#8]
        0x080010c2:    f0210140    !.@.    BIC      r1,r1,#0x40
        0x080010c6:    3140        @1      ADDS     r1,r1,#0x40
        0x080010c8:    6091        .`      STR      r1,[r2,#8]
        0x080010ca:    6901        .i      LDR      r1,[r0,#0x10]
        0x080010cc:    780a        .x      LDRB     r2,[r1,#0]
        0x080010ce:    f04f4120    O. A    MOV      r1,#0xa0000000
        0x080010d2:    68c9        .h      LDR      r1,[r1,#0xc]
        0x080010d4:    f3620103    b...    BFI      r1,r2,#0,#4
        0x080010d8:    e000        ..      B        0x80010dc ; SMC_ConfigNORSRAM + 760
        0x080010da:    e07f        ..      B        0x80011dc ; SMC_ConfigNORSRAM + 1016
        0x080010dc:    f04f4220    O. B    MOV      r2,#0xa0000000
        0x080010e0:    60d1        .`      STR      r1,[r2,#0xc]
        0x080010e2:    6901        .i      LDR      r1,[r0,#0x10]
        0x080010e4:    784a        Jx      LDRB     r2,[r1,#1]
        0x080010e6:    f04f4120    O. A    MOV      r1,#0xa0000000
        0x080010ea:    68c9        .h      LDR      r1,[r1,#0xc]
        0x080010ec:    f3621107    b...    BFI      r1,r2,#4,#4
        0x080010f0:    f04f4220    O. B    MOV      r2,#0xa0000000
        0x080010f4:    60d1        .`      STR      r1,[r2,#0xc]
        0x080010f6:    6901        .i      LDR      r1,[r0,#0x10]
        0x080010f8:    788a        .x      LDRB     r2,[r1,#2]
        0x080010fa:    f04f4120    O. A    MOV      r1,#0xa0000000
        0x080010fe:    68c9        .h      LDR      r1,[r1,#0xc]
        0x08001100:    f362210f    b..!    BFI      r1,r2,#8,#8
        0x08001104:    f04f4220    O. B    MOV      r2,#0xa0000000
        0x08001108:    60d1        .`      STR      r1,[r2,#0xc]
        0x0800110a:    6901        .i      LDR      r1,[r0,#0x10]
        0x0800110c:    78ca        .x      LDRB     r2,[r1,#3]
        0x0800110e:    f04f4120    O. A    MOV      r1,#0xa0000000
        0x08001112:    68c9        .h      LDR      r1,[r1,#0xc]
        0x08001114:    f3624113    b..A    BFI      r1,r2,#16,#4
        0x08001118:    f04f4220    O. B    MOV      r2,#0xa0000000
        0x0800111c:    60d1        .`      STR      r1,[r2,#0xc]
        0x0800111e:    6901        .i      LDR      r1,[r0,#0x10]
        0x08001120:    790a        .y      LDRB     r2,[r1,#4]
        0x08001122:    f04f4120    O. A    MOV      r1,#0xa0000000
        0x08001126:    68c9        .h      LDR      r1,[r1,#0xc]
        0x08001128:    f3625117    b..Q    BFI      r1,r2,#20,#4
        0x0800112c:    f04f4220    O. B    MOV      r2,#0xa0000000
        0x08001130:    60d1        .`      STR      r1,[r2,#0xc]
        0x08001132:    6901        .i      LDR      r1,[r0,#0x10]
        0x08001134:    794a        Jy      LDRB     r2,[r1,#5]
        0x08001136:    f04f4120    O. A    MOV      r1,#0xa0000000
        0x0800113a:    68c9        .h      LDR      r1,[r1,#0xc]
        0x0800113c:    f362611b    b..a    BFI      r1,r2,#24,#4
        0x08001140:    f04f4220    O. B    MOV      r2,#0xa0000000
        0x08001144:    60d1        .`      STR      r1,[r2,#0xc]
        0x08001146:    6901        .i      LDR      r1,[r0,#0x10]
        0x08001148:    798a        .y      LDRB     r2,[r1,#6]
        0x0800114a:    f04f4120    O. A    MOV      r1,#0xa0000000
        0x0800114e:    68c9        .h      LDR      r1,[r1,#0xc]
        0x08001150:    f362711d    b..q    BFI      r1,r2,#28,#2
        0x08001154:    f04f4220    O. B    MOV      r2,#0xa0000000
        0x08001158:    60d1        .`      STR      r1,[r2,#0xc]
        0x0800115a:    7ac1        .z      LDRB     r1,[r0,#0xb]
        0x0800115c:    2901        .)      CMP      r1,#1
        0x0800115e:    d137        7.      BNE      0x80011d0 ; SMC_ConfigNORSRAM + 1004
        0x08001160:    6941        Ai      LDR      r1,[r0,#0x14]
        0x08001162:    780a        .x      LDRB     r2,[r1,#0]
        0x08001164:    4980        .I      LDR      r1,[pc,#512] ; [0x8001368] = 0xa0000104
        0x08001166:    3108        .1      ADDS     r1,r1,#8
        0x08001168:    6809        .h      LDR      r1,[r1,#0]
        0x0800116a:    f3620103    b...    BFI      r1,r2,#0,#4
        0x0800116e:    4a7e        ~J      LDR      r2,[pc,#504] ; [0x8001368] = 0xa0000104
        0x08001170:    3208        .2      ADDS     r2,r2,#8
        0x08001172:    6011        .`      STR      r1,[r2,#0]
        0x08001174:    6941        Ai      LDR      r1,[r0,#0x14]
        0x08001176:    784a        Jx      LDRB     r2,[r1,#1]
        0x08001178:    f04f4120    O. A    MOV      r1,#0xa0000000
        0x0800117c:    f8d1110c    ....    LDR      r1,[r1,#0x10c]
        0x08001180:    f3621107    b...    BFI      r1,r2,#4,#4
        0x08001184:    4a78        xJ      LDR      r2,[pc,#480] ; [0x8001368] = 0xa0000104
        0x08001186:    3208        .2      ADDS     r2,r2,#8
        0x08001188:    6011        .`      STR      r1,[r2,#0]
        0x0800118a:    6941        Ai      LDR      r1,[r0,#0x14]
        0x0800118c:    788a        .x      LDRB     r2,[r1,#2]
        0x0800118e:    f04f4120    O. A    MOV      r1,#0xa0000000
        0x08001192:    f8d1110c    ....    LDR      r1,[r1,#0x10c]
        0x08001196:    f362210f    b..!    BFI      r1,r2,#8,#8
        0x0800119a:    4a73        sJ      LDR      r2,[pc,#460] ; [0x8001368] = 0xa0000104
        0x0800119c:    3208        .2      ADDS     r2,r2,#8
        0x0800119e:    6011        .`      STR      r1,[r2,#0]
        0x080011a0:    6941        Ai      LDR      r1,[r0,#0x14]
        0x080011a2:    78ca        .x      LDRB     r2,[r1,#3]
        0x080011a4:    f04f4120    O. A    MOV      r1,#0xa0000000
        0x080011a8:    f8d1110c    ....    LDR      r1,[r1,#0x10c]
        0x080011ac:    f3624113    b..A    BFI      r1,r2,#16,#4
        0x080011b0:    4a6d        mJ      LDR      r2,[pc,#436] ; [0x8001368] = 0xa0000104
        0x080011b2:    3208        .2      ADDS     r2,r2,#8
        0x080011b4:    6011        .`      STR      r1,[r2,#0]
        0x080011b6:    6941        Ai      LDR      r1,[r0,#0x14]
        0x080011b8:    798a        .y      LDRB     r2,[r1,#6]
        0x080011ba:    f04f4120    O. A    MOV      r1,#0xa0000000
        0x080011be:    f8d1110c    ....    LDR      r1,[r1,#0x10c]
        0x080011c2:    f362711d    b..q    BFI      r1,r2,#28,#2
        0x080011c6:    f04f4220    O. B    MOV      r2,#0xa0000000
        0x080011ca:    f8c2110c    ....    STR      r1,[r2,#0x10c]
        0x080011ce:    e207        ..      B        0x80015e0 ; SMC_ConfigNORSRAM + 2044
        0x080011d0:    f06f4170    o.pA    MVN      r1,#0xf0000000
        0x080011d4:    4a64        dJ      LDR      r2,[pc,#400] ; [0x8001368] = 0xa0000104
        0x080011d6:    3208        .2      ADDS     r2,r2,#8
        0x080011d8:    6011        .`      STR      r1,[r2,#0]
        0x080011da:    e201        ..      B        0x80015e0 ; SMC_ConfigNORSRAM + 2044
        0x080011dc:    7801        .x      LDRB     r1,[r0,#0]
        0x080011de:    2902        .)      CMP      r1,#2
        0x080011e0:    d17e        ~.      BNE      0x80012e0 ; SMC_ConfigNORSRAM + 1276
        0x080011e2:    7842        Bx      LDRB     r2,[r0,#1]
        0x080011e4:    f04f4120    O. A    MOV      r1,#0xa0000000
        0x080011e8:    6909        .i      LDR      r1,[r1,#0x10]
        0x080011ea:    f3620141    b.A.    BFI      r1,r2,#1,#1
        0x080011ee:    f04f4220    O. B    MOV      r2,#0xa0000000
        0x080011f2:    6111        .a      STR      r1,[r2,#0x10]
        0x080011f4:    7882        .x      LDRB     r2,[r0,#2]
        0x080011f6:    f04f4120    O. A    MOV      r1,#0xa0000000
        0x080011fa:    6909        .i      LDR      r1,[r1,#0x10]
        0x080011fc:    f3620183    b...    BFI      r1,r2,#2,#2
        0x08001200:    f04f4220    O. B    MOV      r2,#0xa0000000
        0x08001204:    6111        .a      STR      r1,[r2,#0x10]
        0x08001206:    78c2        .x      LDRB     r2,[r0,#3]
        0x08001208:    f04f4120    O. A    MOV      r1,#0xa0000000
        0x0800120c:    6909        .i      LDR      r1,[r1,#0x10]
        0x0800120e:    f3621105    b...    BFI      r1,r2,#4,#2
        0x08001212:    f04f4220    O. B    MOV      r2,#0xa0000000
        0x08001216:    6111        .a      STR      r1,[r2,#0x10]
        0x08001218:    7902        .y      LDRB     r2,[r0,#4]
        0x0800121a:    f04f4120    O. A    MOV      r1,#0xa0000000
        0x0800121e:    6909        .i      LDR      r1,[r1,#0x10]
        0x08001220:    f3622108    b..!    BFI      r1,r2,#8,#1
        0x08001224:    f04f4220    O. B    MOV      r2,#0xa0000000
        0x08001228:    6111        .a      STR      r1,[r2,#0x10]
        0x0800122a:    7942        By      LDRB     r2,[r0,#5]
        0x0800122c:    f04f4120    O. A    MOV      r1,#0xa0000000
        0x08001230:    6909        .i      LDR      r1,[r1,#0x10]
        0x08001232:    f36231cf    b..1    BFI      r1,r2,#15,#1
        0x08001236:    f04f4220    O. B    MOV      r2,#0xa0000000
        0x0800123a:    6111        .a      STR      r1,[r2,#0x10]
        0x0800123c:    7982        .y      LDRB     r2,[r0,#6]
        0x0800123e:    f04f4120    O. A    MOV      r1,#0xa0000000
        0x08001242:    6909        .i      LDR      r1,[r1,#0x10]
        0x08001244:    f3622149    b.I!    BFI      r1,r2,#9,#1
        0x08001248:    f04f4220    O. B    MOV      r2,#0xa0000000
        0x0800124c:    6111        .a      STR      r1,[r2,#0x10]
        0x0800124e:    79c2        .y      LDRB     r2,[r0,#7]
        0x08001250:    f04f4120    O. A    MOV      r1,#0xa0000000
        0x08001254:    6909        .i      LDR      r1,[r1,#0x10]
        0x08001256:    f362218a    b..!    BFI      r1,r2,#10,#1
        0x0800125a:    f04f4220    O. B    MOV      r2,#0xa0000000
        0x0800125e:    6111        .a      STR      r1,[r2,#0x10]
        0x08001260:    7a02        .z      LDRB     r2,[r0,#8]
        0x08001262:    f04f4120    O. A    MOV      r1,#0xa0000000
        0x08001266:    6909        .i      LDR      r1,[r1,#0x10]
        0x08001268:    f36221cb    b..!    BFI      r1,r2,#11,#1
        0x0800126c:    f04f4220    O. B    MOV      r2,#0xa0000000
        0x08001270:    6111        .a      STR      r1,[r2,#0x10]
        0x08001272:    7a42        Bz      LDRB     r2,[r0,#9]
        0x08001274:    f04f4120    O. A    MOV      r1,#0xa0000000
        0x08001278:    6909        .i      LDR      r1,[r1,#0x10]
        0x0800127a:    f362310c    b..1    BFI      r1,r2,#12,#1
        0x0800127e:    f04f4220    O. B    MOV      r2,#0xa0000000
        0x08001282:    6111        .a      STR      r1,[r2,#0x10]
        0x08001284:    7a82        .z      LDRB     r2,[r0,#0xa]
        0x08001286:    f04f4120    O. A    MOV      r1,#0xa0000000
        0x0800128a:    6909        .i      LDR      r1,[r1,#0x10]
        0x0800128c:    f362314d    b.M1    BFI      r1,r2,#13,#1
        0x08001290:    f04f4220    O. B    MOV      r2,#0xa0000000
        0x08001294:    6111        .a      STR      r1,[r2,#0x10]
        0x08001296:    7ac2        .z      LDRB     r2,[r0,#0xb]
        0x08001298:    f04f4120    O. A    MOV      r1,#0xa0000000
        0x0800129c:    6909        .i      LDR      r1,[r1,#0x10]
        0x0800129e:    f362318e    b..1    BFI      r1,r2,#14,#1
        0x080012a2:    f04f4220    O. B    MOV      r2,#0xa0000000
        0x080012a6:    6111        .a      STR      r1,[r2,#0x10]
        0x080012a8:    7b02        .{      LDRB     r2,[r0,#0xc]
        0x080012aa:    f04f4120    O. A    MOV      r1,#0xa0000000
        0x080012ae:    6909        .i      LDR      r1,[r1,#0x10]
        0x080012b0:    f36241d3    b..A    BFI      r1,r2,#19,#1
        0x080012b4:    f04f4220    O. B    MOV      r2,#0xa0000000
        0x080012b8:    6111        .a      STR      r1,[r2,#0x10]
        0x080012ba:    7881        .x      LDRB     r1,[r0,#2]
        0x080012bc:    2902        .)      CMP      r1,#2
        0x080012be:    d105        ..      BNE      0x80012cc ; SMC_ConfigNORSRAM + 1256
        0x080012c0:    4611        .F      MOV      r1,r2
        0x080012c2:    6909        .i      LDR      r1,[r1,#0x10]
        0x080012c4:    f0210140    !.@.    BIC      r1,r1,#0x40
        0x080012c8:    3140        @1      ADDS     r1,r1,#0x40
        0x080012ca:    6111        .a      STR      r1,[r2,#0x10]
        0x080012cc:    6901        .i      LDR      r1,[r0,#0x10]
        0x080012ce:    780a        .x      LDRB     r2,[r1,#0]
        0x080012d0:    f04f4120    O. A    MOV      r1,#0xa0000000
        0x080012d4:    6949        Ii      LDR      r1,[r1,#0x14]
        0x080012d6:    f3620103    b...    BFI      r1,r2,#0,#4
        0x080012da:    f04f4220    O. B    MOV      r2,#0xa0000000
        0x080012de:    e000        ..      B        0x80012e2 ; SMC_ConfigNORSRAM + 1278
        0x080012e0:    e080        ..      B        0x80013e4 ; SMC_ConfigNORSRAM + 1536
        0x080012e2:    6151        Qa      STR      r1,[r2,#0x14]
        0x080012e4:    6901        .i      LDR      r1,[r0,#0x10]
        0x080012e6:    784a        Jx      LDRB     r2,[r1,#1]
        0x080012e8:    f04f4120    O. A    MOV      r1,#0xa0000000
        0x080012ec:    6949        Ii      LDR      r1,[r1,#0x14]
        0x080012ee:    f3621107    b...    BFI      r1,r2,#4,#4
        0x080012f2:    f04f4220    O. B    MOV      r2,#0xa0000000
        0x080012f6:    6151        Qa      STR      r1,[r2,#0x14]
        0x080012f8:    6901        .i      LDR      r1,[r0,#0x10]
        0x080012fa:    788a        .x      LDRB     r2,[r1,#2]
        0x080012fc:    f04f4120    O. A    MOV      r1,#0xa0000000
        0x08001300:    6949        Ii      LDR      r1,[r1,#0x14]
        0x08001302:    f362210f    b..!    BFI      r1,r2,#8,#8
        0x08001306:    f04f4220    O. B    MOV      r2,#0xa0000000
        0x0800130a:    6151        Qa      STR      r1,[r2,#0x14]
        0x0800130c:    6901        .i      LDR      r1,[r0,#0x10]
        0x0800130e:    78ca        .x      LDRB     r2,[r1,#3]
        0x08001310:    f04f4120    O. A    MOV      r1,#0xa0000000
        0x08001314:    6949        Ii      LDR      r1,[r1,#0x14]
        0x08001316:    f3624113    b..A    BFI      r1,r2,#16,#4
        0x0800131a:    f04f4220    O. B    MOV      r2,#0xa0000000
        0x0800131e:    6151        Qa      STR      r1,[r2,#0x14]
        0x08001320:    6901        .i      LDR      r1,[r0,#0x10]
        0x08001322:    790a        .y      LDRB     r2,[r1,#4]
        0x08001324:    f04f4120    O. A    MOV      r1,#0xa0000000
        0x08001328:    6949        Ii      LDR      r1,[r1,#0x14]
        0x0800132a:    f3625117    b..Q    BFI      r1,r2,#20,#4
        0x0800132e:    f04f4220    O. B    MOV      r2,#0xa0000000
        0x08001332:    6151        Qa      STR      r1,[r2,#0x14]
        0x08001334:    6901        .i      LDR      r1,[r0,#0x10]
        0x08001336:    794a        Jy      LDRB     r2,[r1,#5]
        0x08001338:    f04f4120    O. A    MOV      r1,#0xa0000000
        0x0800133c:    6949        Ii      LDR      r1,[r1,#0x14]
        0x0800133e:    f362611b    b..a    BFI      r1,r2,#24,#4
        0x08001342:    f04f4220    O. B    MOV      r2,#0xa0000000
        0x08001346:    6151        Qa      STR      r1,[r2,#0x14]
        0x08001348:    6901        .i      LDR      r1,[r0,#0x10]
        0x0800134a:    798a        .y      LDRB     r2,[r1,#6]
        0x0800134c:    f04f4120    O. A    MOV      r1,#0xa0000000
        0x08001350:    6949        Ii      LDR      r1,[r1,#0x14]
        0x08001352:    f362711d    b..q    BFI      r1,r2,#28,#2
        0x08001356:    f04f4220    O. B    MOV      r2,#0xa0000000
        0x0800135a:    6151        Qa      STR      r1,[r2,#0x14]
        0x0800135c:    7ac1        .z      LDRB     r1,[r0,#0xb]
        0x0800135e:    2901        .)      CMP      r1,#1
        0x08001360:    d13a        :.      BNE      0x80013d8 ; SMC_ConfigNORSRAM + 1524
        0x08001362:    6941        Ai      LDR      r1,[r0,#0x14]
        0x08001364:    780a        .x      LDRB     r2,[r1,#0]
        0x08001366:    e001        ..      B        0x800136c ; SMC_ConfigNORSRAM + 1416
    $d
        0x08001368:    a0000104    ....    DCD    2684354820
    $t
        0x0800136c:    499d        .I      LDR      r1,[pc,#628] ; [0x80015e4] = 0xa0000104
        0x0800136e:    3110        .1      ADDS     r1,r1,#0x10
        0x08001370:    6809        .h      LDR      r1,[r1,#0]
        0x08001372:    f3620103    b...    BFI      r1,r2,#0,#4
        0x08001376:    4a9b        .J      LDR      r2,[pc,#620] ; [0x80015e4] = 0xa0000104
        0x08001378:    3210        .2      ADDS     r2,r2,#0x10
        0x0800137a:    6011        .`      STR      r1,[r2,#0]
        0x0800137c:    6941        Ai      LDR      r1,[r0,#0x14]
        0x0800137e:    784a        Jx      LDRB     r2,[r1,#1]
        0x08001380:    f04f4120    O. A    MOV      r1,#0xa0000000
        0x08001384:    f8d11114    ....    LDR      r1,[r1,#0x114]
        0x08001388:    f3621107    b...    BFI      r1,r2,#4,#4
        0x0800138c:    4a95        .J      LDR      r2,[pc,#596] ; [0x80015e4] = 0xa0000104
        0x0800138e:    3210        .2      ADDS     r2,r2,#0x10
        0x08001390:    6011        .`      STR      r1,[r2,#0]
        0x08001392:    6941        Ai      LDR      r1,[r0,#0x14]
        0x08001394:    788a        .x      LDRB     r2,[r1,#2]
        0x08001396:    f04f4120    O. A    MOV      r1,#0xa0000000
        0x0800139a:    f8d11114    ....    LDR      r1,[r1,#0x114]
        0x0800139e:    f362210f    b..!    BFI      r1,r2,#8,#8
        0x080013a2:    4a90        .J      LDR      r2,[pc,#576] ; [0x80015e4] = 0xa0000104
        0x080013a4:    3210        .2      ADDS     r2,r2,#0x10
        0x080013a6:    6011        .`      STR      r1,[r2,#0]
        0x080013a8:    6941        Ai      LDR      r1,[r0,#0x14]
        0x080013aa:    78ca        .x      LDRB     r2,[r1,#3]
        0x080013ac:    f04f4120    O. A    MOV      r1,#0xa0000000
        0x080013b0:    f8d11114    ....    LDR      r1,[r1,#0x114]
        0x080013b4:    f3624113    b..A    BFI      r1,r2,#16,#4
        0x080013b8:    4a8a        .J      LDR      r2,[pc,#552] ; [0x80015e4] = 0xa0000104
        0x080013ba:    3210        .2      ADDS     r2,r2,#0x10
        0x080013bc:    6011        .`      STR      r1,[r2,#0]
        0x080013be:    6941        Ai      LDR      r1,[r0,#0x14]
        0x080013c0:    798a        .y      LDRB     r2,[r1,#6]
        0x080013c2:    f04f4120    O. A    MOV      r1,#0xa0000000
        0x080013c6:    f8d11114    ....    LDR      r1,[r1,#0x114]
        0x080013ca:    f362711d    b..q    BFI      r1,r2,#28,#2
        0x080013ce:    f04f4220    O. B    MOV      r2,#0xa0000000
        0x080013d2:    f8c21114    ....    STR      r1,[r2,#0x114]
        0x080013d6:    e103        ..      B        0x80015e0 ; SMC_ConfigNORSRAM + 2044
        0x080013d8:    f06f4170    o.pA    MVN      r1,#0xf0000000
        0x080013dc:    4a81        .J      LDR      r2,[pc,#516] ; [0x80015e4] = 0xa0000104
        0x080013de:    3210        .2      ADDS     r2,r2,#0x10
        0x080013e0:    6011        .`      STR      r1,[r2,#0]
        0x080013e2:    e0fd        ..      B        0x80015e0 ; SMC_ConfigNORSRAM + 2044
        0x080013e4:    7801        .x      LDRB     r1,[r0,#0]
        0x080013e6:    2903        .)      CMP      r1,#3
        0x080013e8:    d1f5        ..      BNE      0x80013d6 ; SMC_ConfigNORSRAM + 1522
        0x080013ea:    7842        Bx      LDRB     r2,[r0,#1]
        0x080013ec:    f04f4120    O. A    MOV      r1,#0xa0000000
        0x080013f0:    6989        .i      LDR      r1,[r1,#0x18]
        0x080013f2:    f3620141    b.A.    BFI      r1,r2,#1,#1
        0x080013f6:    f04f4220    O. B    MOV      r2,#0xa0000000
        0x080013fa:    6191        .a      STR      r1,[r2,#0x18]
        0x080013fc:    7882        .x      LDRB     r2,[r0,#2]
        0x080013fe:    f04f4120    O. A    MOV      r1,#0xa0000000
        0x08001402:    6989        .i      LDR      r1,[r1,#0x18]
        0x08001404:    f3620183    b...    BFI      r1,r2,#2,#2
        0x08001408:    f04f4220    O. B    MOV      r2,#0xa0000000
        0x0800140c:    6191        .a      STR      r1,[r2,#0x18]
        0x0800140e:    78c2        .x      LDRB     r2,[r0,#3]
        0x08001410:    f04f4120    O. A    MOV      r1,#0xa0000000
        0x08001414:    6989        .i      LDR      r1,[r1,#0x18]
        0x08001416:    f3621105    b...    BFI      r1,r2,#4,#2
        0x0800141a:    f04f4220    O. B    MOV      r2,#0xa0000000
        0x0800141e:    6191        .a      STR      r1,[r2,#0x18]
        0x08001420:    7902        .y      LDRB     r2,[r0,#4]
        0x08001422:    f04f4120    O. A    MOV      r1,#0xa0000000
        0x08001426:    6989        .i      LDR      r1,[r1,#0x18]
        0x08001428:    f3622108    b..!    BFI      r1,r2,#8,#1
        0x0800142c:    f04f4220    O. B    MOV      r2,#0xa0000000
        0x08001430:    6191        .a      STR      r1,[r2,#0x18]
        0x08001432:    7942        By      LDRB     r2,[r0,#5]
        0x08001434:    f04f4120    O. A    MOV      r1,#0xa0000000
        0x08001438:    6989        .i      LDR      r1,[r1,#0x18]
        0x0800143a:    f36231cf    b..1    BFI      r1,r2,#15,#1
        0x0800143e:    f04f4220    O. B    MOV      r2,#0xa0000000
        0x08001442:    6191        .a      STR      r1,[r2,#0x18]
        0x08001444:    7982        .y      LDRB     r2,[r0,#6]
        0x08001446:    f04f4120    O. A    MOV      r1,#0xa0000000
        0x0800144a:    6989        .i      LDR      r1,[r1,#0x18]
        0x0800144c:    f3622149    b.I!    BFI      r1,r2,#9,#1
        0x08001450:    f04f4220    O. B    MOV      r2,#0xa0000000
        0x08001454:    6191        .a      STR      r1,[r2,#0x18]
        0x08001456:    79c2        .y      LDRB     r2,[r0,#7]
        0x08001458:    f04f4120    O. A    MOV      r1,#0xa0000000
        0x0800145c:    6989        .i      LDR      r1,[r1,#0x18]
        0x0800145e:    f362218a    b..!    BFI      r1,r2,#10,#1
        0x08001462:    f04f4220    O. B    MOV      r2,#0xa0000000
        0x08001466:    6191        .a      STR      r1,[r2,#0x18]
        0x08001468:    7a02        .z      LDRB     r2,[r0,#8]
        0x0800146a:    f04f4120    O. A    MOV      r1,#0xa0000000
        0x0800146e:    6989        .i      LDR      r1,[r1,#0x18]
        0x08001470:    f36221cb    b..!    BFI      r1,r2,#11,#1
        0x08001474:    f04f4220    O. B    MOV      r2,#0xa0000000
        0x08001478:    6191        .a      STR      r1,[r2,#0x18]
        0x0800147a:    7a42        Bz      LDRB     r2,[r0,#9]
        0x0800147c:    f04f4120    O. A    MOV      r1,#0xa0000000
        0x08001480:    6989        .i      LDR      r1,[r1,#0x18]
        0x08001482:    f362310c    b..1    BFI      r1,r2,#12,#1
        0x08001486:    f04f4220    O. B    MOV      r2,#0xa0000000
        0x0800148a:    6191        .a      STR      r1,[r2,#0x18]
        0x0800148c:    7a82        .z      LDRB     r2,[r0,#0xa]
        0x0800148e:    f04f4120    O. A    MOV      r1,#0xa0000000
        0x08001492:    6989        .i      LDR      r1,[r1,#0x18]
        0x08001494:    f362314d    b.M1    BFI      r1,r2,#13,#1
        0x08001498:    f04f4220    O. B    MOV      r2,#0xa0000000
        0x0800149c:    6191        .a      STR      r1,[r2,#0x18]
        0x0800149e:    7ac2        .z      LDRB     r2,[r0,#0xb]
        0x080014a0:    f04f4120    O. A    MOV      r1,#0xa0000000
        0x080014a4:    6989        .i      LDR      r1,[r1,#0x18]
        0x080014a6:    f362318e    b..1    BFI      r1,r2,#14,#1
        0x080014aa:    f04f4220    O. B    MOV      r2,#0xa0000000
        0x080014ae:    6191        .a      STR      r1,[r2,#0x18]
        0x080014b0:    7b02        .{      LDRB     r2,[r0,#0xc]
        0x080014b2:    f04f4120    O. A    MOV      r1,#0xa0000000
        0x080014b6:    6989        .i      LDR      r1,[r1,#0x18]
        0x080014b8:    f36241d3    b..A    BFI      r1,r2,#19,#1
        0x080014bc:    f04f4220    O. B    MOV      r2,#0xa0000000
        0x080014c0:    6191        .a      STR      r1,[r2,#0x18]
        0x080014c2:    7881        .x      LDRB     r1,[r0,#2]
        0x080014c4:    2902        .)      CMP      r1,#2
        0x080014c6:    d105        ..      BNE      0x80014d4 ; SMC_ConfigNORSRAM + 1776
        0x080014c8:    4611        .F      MOV      r1,r2
        0x080014ca:    6989        .i      LDR      r1,[r1,#0x18]
        0x080014cc:    f0210140    !.@.    BIC      r1,r1,#0x40
        0x080014d0:    3140        @1      ADDS     r1,r1,#0x40
        0x080014d2:    6191        .a      STR      r1,[r2,#0x18]
        0x080014d4:    6901        .i      LDR      r1,[r0,#0x10]
        0x080014d6:    780a        .x      LDRB     r2,[r1,#0]
        0x080014d8:    f04f4120    O. A    MOV      r1,#0xa0000000
        0x080014dc:    69c9        .i      LDR      r1,[r1,#0x1c]
        0x080014de:    f3620103    b...    BFI      r1,r2,#0,#4
        0x080014e2:    f04f4220    O. B    MOV      r2,#0xa0000000
        0x080014e6:    61d1        .a      STR      r1,[r2,#0x1c]
        0x080014e8:    6901        .i      LDR      r1,[r0,#0x10]
        0x080014ea:    784a        Jx      LDRB     r2,[r1,#1]
        0x080014ec:    f04f4120    O. A    MOV      r1,#0xa0000000
        0x080014f0:    69c9        .i      LDR      r1,[r1,#0x1c]
        0x080014f2:    f3621107    b...    BFI      r1,r2,#4,#4
        0x080014f6:    f04f4220    O. B    MOV      r2,#0xa0000000
        0x080014fa:    61d1        .a      STR      r1,[r2,#0x1c]
        0x080014fc:    6901        .i      LDR      r1,[r0,#0x10]
        0x080014fe:    788a        .x      LDRB     r2,[r1,#2]
        0x08001500:    f04f4120    O. A    MOV      r1,#0xa0000000
        0x08001504:    69c9        .i      LDR      r1,[r1,#0x1c]
        0x08001506:    f362210f    b..!    BFI      r1,r2,#8,#8
        0x0800150a:    f04f4220    O. B    MOV      r2,#0xa0000000
        0x0800150e:    61d1        .a      STR      r1,[r2,#0x1c]
        0x08001510:    6901        .i      LDR      r1,[r0,#0x10]
        0x08001512:    78ca        .x      LDRB     r2,[r1,#3]
        0x08001514:    f04f4120    O. A    MOV      r1,#0xa0000000
        0x08001518:    69c9        .i      LDR      r1,[r1,#0x1c]
        0x0800151a:    f3624113    b..A    BFI      r1,r2,#16,#4
        0x0800151e:    f04f4220    O. B    MOV      r2,#0xa0000000
        0x08001522:    61d1        .a      STR      r1,[r2,#0x1c]
        0x08001524:    6901        .i      LDR      r1,[r0,#0x10]
        0x08001526:    790a        .y      LDRB     r2,[r1,#4]
        0x08001528:    f04f4120    O. A    MOV      r1,#0xa0000000
        0x0800152c:    69c9        .i      LDR      r1,[r1,#0x1c]
        0x0800152e:    f3625117    b..Q    BFI      r1,r2,#20,#4
        0x08001532:    f04f4220    O. B    MOV      r2,#0xa0000000
        0x08001536:    61d1        .a      STR      r1,[r2,#0x1c]
        0x08001538:    6901        .i      LDR      r1,[r0,#0x10]
        0x0800153a:    794a        Jy      LDRB     r2,[r1,#5]
        0x0800153c:    f04f4120    O. A    MOV      r1,#0xa0000000
        0x08001540:    69c9        .i      LDR      r1,[r1,#0x1c]
        0x08001542:    f362611b    b..a    BFI      r1,r2,#24,#4
        0x08001546:    f04f4220    O. B    MOV      r2,#0xa0000000
        0x0800154a:    61d1        .a      STR      r1,[r2,#0x1c]
        0x0800154c:    6901        .i      LDR      r1,[r0,#0x10]
        0x0800154e:    798a        .y      LDRB     r2,[r1,#6]
        0x08001550:    f04f4120    O. A    MOV      r1,#0xa0000000
        0x08001554:    69c9        .i      LDR      r1,[r1,#0x1c]
        0x08001556:    f362711d    b..q    BFI      r1,r2,#28,#2
        0x0800155a:    f04f4220    O. B    MOV      r2,#0xa0000000
        0x0800155e:    61d1        .a      STR      r1,[r2,#0x1c]
        0x08001560:    7ac1        .z      LDRB     r1,[r0,#0xb]
        0x08001562:    2901        .)      CMP      r1,#1
        0x08001564:    d137        7.      BNE      0x80015d6 ; SMC_ConfigNORSRAM + 2034
        0x08001566:    6941        Ai      LDR      r1,[r0,#0x14]
        0x08001568:    780a        .x      LDRB     r2,[r1,#0]
        0x0800156a:    491e        .I      LDR      r1,[pc,#120] ; [0x80015e4] = 0xa0000104
        0x0800156c:    3118        .1      ADDS     r1,r1,#0x18
        0x0800156e:    6809        .h      LDR      r1,[r1,#0]
        0x08001570:    f3620103    b...    BFI      r1,r2,#0,#4
        0x08001574:    4a1b        .J      LDR      r2,[pc,#108] ; [0x80015e4] = 0xa0000104
        0x08001576:    3218        .2      ADDS     r2,r2,#0x18
        0x08001578:    6011        .`      STR      r1,[r2,#0]
        0x0800157a:    6941        Ai      LDR      r1,[r0,#0x14]
        0x0800157c:    784a        Jx      LDRB     r2,[r1,#1]
        0x0800157e:    f04f4120    O. A    MOV      r1,#0xa0000000
        0x08001582:    f8d1111c    ....    LDR      r1,[r1,#0x11c]
        0x08001586:    f3621107    b...    BFI      r1,r2,#4,#4
        0x0800158a:    4a16        .J      LDR      r2,[pc,#88] ; [0x80015e4] = 0xa0000104
        0x0800158c:    3218        .2      ADDS     r2,r2,#0x18
        0x0800158e:    6011        .`      STR      r1,[r2,#0]
        0x08001590:    6941        Ai      LDR      r1,[r0,#0x14]
        0x08001592:    788a        .x      LDRB     r2,[r1,#2]
        0x08001594:    f04f4120    O. A    MOV      r1,#0xa0000000
        0x08001598:    f8d1111c    ....    LDR      r1,[r1,#0x11c]
        0x0800159c:    f362210f    b..!    BFI      r1,r2,#8,#8
        0x080015a0:    4a10        .J      LDR      r2,[pc,#64] ; [0x80015e4] = 0xa0000104
        0x080015a2:    3218        .2      ADDS     r2,r2,#0x18
        0x080015a4:    6011        .`      STR      r1,[r2,#0]
        0x080015a6:    6941        Ai      LDR      r1,[r0,#0x14]
        0x080015a8:    78ca        .x      LDRB     r2,[r1,#3]
        0x080015aa:    f04f4120    O. A    MOV      r1,#0xa0000000
        0x080015ae:    f8d1111c    ....    LDR      r1,[r1,#0x11c]
        0x080015b2:    f3624113    b..A    BFI      r1,r2,#16,#4
        0x080015b6:    4a0b        .J      LDR      r2,[pc,#44] ; [0x80015e4] = 0xa0000104
        0x080015b8:    3218        .2      ADDS     r2,r2,#0x18
        0x080015ba:    6011        .`      STR      r1,[r2,#0]
        0x080015bc:    6941        Ai      LDR      r1,[r0,#0x14]
        0x080015be:    798a        .y      LDRB     r2,[r1,#6]
        0x080015c0:    f04f4120    O. A    MOV      r1,#0xa0000000
        0x080015c4:    f8d1111c    ....    LDR      r1,[r1,#0x11c]
        0x080015c8:    f362711d    b..q    BFI      r1,r2,#28,#2
        0x080015cc:    f04f4220    O. B    MOV      r2,#0xa0000000
        0x080015d0:    f8c2111c    ....    STR      r1,[r2,#0x11c]
        0x080015d4:    e004        ..      B        0x80015e0 ; SMC_ConfigNORSRAM + 2044
        0x080015d6:    f06f4170    o.pA    MVN      r1,#0xf0000000
        0x080015da:    4a02        .J      LDR      r2,[pc,#8] ; [0x80015e4] = 0xa0000104
        0x080015dc:    3218        .2      ADDS     r2,r2,#0x18
        0x080015de:    6011        .`      STR      r1,[r2,#0]
        0x080015e0:    4770        pG      BX       lr
    $d
        0x080015e2:    0000        ..      DCW    0
        0x080015e4:    a0000104    ....    DCD    2684354820
    $t
    i.SMC_EnableNORSRAM
    SMC_EnableNORSRAM
        0x080015e8:    b948        H.      CBNZ     r0,0x80015fe ; SMC_EnableNORSRAM + 22
        0x080015ea:    f04f4120    O. A    MOV      r1,#0xa0000000
        0x080015ee:    6809        .h      LDR      r1,[r1,#0]
        0x080015f0:    f0210101    !...    BIC      r1,r1,#1
        0x080015f4:    1c49        I.      ADDS     r1,r1,#1
        0x080015f6:    f04f4220    O. B    MOV      r2,#0xa0000000
        0x080015fa:    6011        .`      STR      r1,[r2,#0]
        0x080015fc:    e022        ".      B        0x8001644 ; SMC_EnableNORSRAM + 92
        0x080015fe:    2801        .(      CMP      r0,#1
        0x08001600:    d109        ..      BNE      0x8001616 ; SMC_EnableNORSRAM + 46
        0x08001602:    f04f4120    O. A    MOV      r1,#0xa0000000
        0x08001606:    6889        .h      LDR      r1,[r1,#8]
        0x08001608:    f0210101    !...    BIC      r1,r1,#1
        0x0800160c:    1c49        I.      ADDS     r1,r1,#1
        0x0800160e:    f04f4220    O. B    MOV      r2,#0xa0000000
        0x08001612:    6091        .`      STR      r1,[r2,#8]
        0x08001614:    e016        ..      B        0x8001644 ; SMC_EnableNORSRAM + 92
        0x08001616:    2802        .(      CMP      r0,#2
        0x08001618:    d109        ..      BNE      0x800162e ; SMC_EnableNORSRAM + 70
        0x0800161a:    f04f4120    O. A    MOV      r1,#0xa0000000
        0x0800161e:    6909        .i      LDR      r1,[r1,#0x10]
        0x08001620:    f0210101    !...    BIC      r1,r1,#1
        0x08001624:    1c49        I.      ADDS     r1,r1,#1
        0x08001626:    f04f4220    O. B    MOV      r2,#0xa0000000
        0x0800162a:    6111        .a      STR      r1,[r2,#0x10]
        0x0800162c:    e00a        ..      B        0x8001644 ; SMC_EnableNORSRAM + 92
        0x0800162e:    2803        .(      CMP      r0,#3
        0x08001630:    d108        ..      BNE      0x8001644 ; SMC_EnableNORSRAM + 92
        0x08001632:    f04f4120    O. A    MOV      r1,#0xa0000000
        0x08001636:    6989        .i      LDR      r1,[r1,#0x18]
        0x08001638:    f0210101    !...    BIC      r1,r1,#1
        0x0800163c:    1c49        I.      ADDS     r1,r1,#1
        0x0800163e:    f04f4220    O. B    MOV      r2,#0xa0000000
        0x08001642:    6191        .a      STR      r1,[r2,#0x18]
        0x08001644:    4770        pG      BX       lr
    i.SVC_Handler
    SVC_Handler
        0x08001646:    4770        pG      BX       lr
    i.SysTick_ConfigCLKSource
    SysTick_ConfigCLKSource
        0x08001648:    2801        .(      CMP      r0,#1
        0x0800164a:    d108        ..      BNE      0x800165e ; SysTick_ConfigCLKSource + 22
        0x0800164c:    f04f21e0    O..!    MOV      r1,#0xe000e000
        0x08001650:    6909        .i      LDR      r1,[r1,#0x10]
        0x08001652:    f0410104    A...    ORR      r1,r1,#4
        0x08001656:    f04f22e0    O.."    MOV      r2,#0xe000e000
        0x0800165a:    6111        .a      STR      r1,[r2,#0x10]
        0x0800165c:    e007        ..      B        0x800166e ; SysTick_ConfigCLKSource + 38
        0x0800165e:    f04f21e0    O..!    MOV      r1,#0xe000e000
        0x08001662:    6909        .i      LDR      r1,[r1,#0x10]
        0x08001664:    f0210104    !...    BIC      r1,r1,#4
        0x08001668:    f04f22e0    O.."    MOV      r2,#0xe000e000
        0x0800166c:    6111        .a      STR      r1,[r2,#0x10]
        0x0800166e:    4770        pG      BX       lr
    i.SysTick_Handler
    SysTick_Handler
        0x08001670:    4770        pG      BX       lr
        0x08001672:    0000        ..      MOVS     r0,r0
    i.SystemClock72M
    SystemClock72M
        0x08001674:    b508        ..      PUSH     {r3,lr}
        0x08001676:    4834        4H      LDR      r0,[pc,#208] ; [0x8001748] = 0x40021000
        0x08001678:    6800        .h      LDR      r0,[r0,#0]
        0x0800167a:    f4203080     ..0    BIC      r0,r0,#0x10000
        0x0800167e:    f5003080    ...0    ADD      r0,r0,#0x10000
        0x08001682:    4931        1I      LDR      r1,[pc,#196] ; [0x8001748] = 0x40021000
        0x08001684:    6008        .`      STR      r0,[r1,#0]
        0x08001686:    2000        .       MOVS     r0,#0
        0x08001688:    9000        ..      STR      r0,[sp,#0]
        0x0800168a:    e008        ..      B        0x800169e ; SystemClock72M + 42
        0x0800168c:    482e        .H      LDR      r0,[pc,#184] ; [0x8001748] = 0x40021000
        0x0800168e:    6800        .h      LDR      r0,[r0,#0]
        0x08001690:    f3c04040    ..@@    UBFX     r0,r0,#17,#1
        0x08001694:    b100        ..      CBZ      r0,0x8001698 ; SystemClock72M + 36
        0x08001696:    e006        ..      B        0x80016a6 ; SystemClock72M + 50
        0x08001698:    9800        ..      LDR      r0,[sp,#0]
        0x0800169a:    1c40        @.      ADDS     r0,r0,#1
        0x0800169c:    9000        ..      STR      r0,[sp,#0]
        0x0800169e:    9800        ..      LDR      r0,[sp,#0]
        0x080016a0:    f5b05f48    ..H_    CMP      r0,#0x3200
        0x080016a4:    d3f2        ..      BCC      0x800168c ; SystemClock72M + 24
        0x080016a6:    bf00        ..      NOP      
        0x080016a8:    4827        'H      LDR      r0,[pc,#156] ; [0x8001748] = 0x40021000
        0x080016aa:    6800        .h      LDR      r0,[r0,#0]
        0x080016ac:    f3c04040    ..@@    UBFX     r0,r0,#17,#1
        0x080016b0:    2800        .(      CMP      r0,#0
        0x080016b2:    d048        H.      BEQ      0x8001746 ; SystemClock72M + 210
        0x080016b4:    4825        %H      LDR      r0,[pc,#148] ; [0x800174c] = 0x40022000
        0x080016b6:    6800        .h      LDR      r0,[r0,#0]
        0x080016b8:    f0200010     ...    BIC      r0,r0,#0x10
        0x080016bc:    3010        .0      ADDS     r0,r0,#0x10
        0x080016be:    4923        #I      LDR      r1,[pc,#140] ; [0x800174c] = 0x40022000
        0x080016c0:    6008        .`      STR      r0,[r1,#0]
        0x080016c2:    4608        .F      MOV      r0,r1
        0x080016c4:    6800        .h      LDR      r0,[r0,#0]
        0x080016c6:    f0200007     ...    BIC      r0,r0,#7
        0x080016ca:    1c80        ..      ADDS     r0,r0,#2
        0x080016cc:    6008        .`      STR      r0,[r1,#0]
        0x080016ce:    481e        .H      LDR      r0,[pc,#120] ; [0x8001748] = 0x40021000
        0x080016d0:    6840        @h      LDR      r0,[r0,#4]
        0x080016d2:    f02000f0     ...    BIC      r0,r0,#0xf0
        0x080016d6:    491c        .I      LDR      r1,[pc,#112] ; [0x8001748] = 0x40021000
        0x080016d8:    6048        H`      STR      r0,[r1,#4]
        0x080016da:    4608        .F      MOV      r0,r1
        0x080016dc:    6840        @h      LDR      r0,[r0,#4]
        0x080016de:    f4205060     .`P    BIC      r0,r0,#0x3800
        0x080016e2:    6048        H`      STR      r0,[r1,#4]
        0x080016e4:    4608        .F      MOV      r0,r1
        0x080016e6:    6840        @h      LDR      r0,[r0,#4]
        0x080016e8:    f42060e0     ..`    BIC      r0,r0,#0x700
        0x080016ec:    f5006080    ...`    ADD      r0,r0,#0x400
        0x080016f0:    6048        H`      STR      r0,[r1,#4]
        0x080016f2:    4608        .F      MOV      r0,r1
        0x080016f4:    6840        @h      LDR      r0,[r0,#4]
        0x080016f6:    f4203080     ..0    BIC      r0,r0,#0x10000
        0x080016fa:    f5003080    ...0    ADD      r0,r0,#0x10000
        0x080016fe:    6048        H`      STR      r0,[r1,#4]
        0x08001700:    4608        .F      MOV      r0,r1
        0x08001702:    6840        @h      LDR      r0,[r0,#4]
        0x08001704:    f4201070     .p.    BIC      r0,r0,#0x3c0000
        0x08001708:    f50010e0    ....    ADD      r0,r0,#0x1c0000
        0x0800170c:    6048        H`      STR      r0,[r1,#4]
        0x0800170e:    4608        .F      MOV      r0,r1
        0x08001710:    6800        .h      LDR      r0,[r0,#0]
        0x08001712:    f0207080     ..p    BIC      r0,r0,#0x1000000
        0x08001716:    f1007080    ...p    ADD      r0,r0,#0x1000000
        0x0800171a:    6008        .`      STR      r0,[r1,#0]
        0x0800171c:    bf00        ..      NOP      
        0x0800171e:    480a        .H      LDR      r0,[pc,#40] ; [0x8001748] = 0x40021000
        0x08001720:    6800        .h      LDR      r0,[r0,#0]
        0x08001722:    f3c06040    ..@`    UBFX     r0,r0,#25,#1
        0x08001726:    2800        .(      CMP      r0,#0
        0x08001728:    d0f9        ..      BEQ      0x800171e ; SystemClock72M + 170
        0x0800172a:    4807        .H      LDR      r0,[pc,#28] ; [0x8001748] = 0x40021000
        0x0800172c:    6840        @h      LDR      r0,[r0,#4]
        0x0800172e:    f0200003     ...    BIC      r0,r0,#3
        0x08001732:    1c80        ..      ADDS     r0,r0,#2
        0x08001734:    4904        .I      LDR      r1,[pc,#16] ; [0x8001748] = 0x40021000
        0x08001736:    6048        H`      STR      r0,[r1,#4]
        0x08001738:    bf00        ..      NOP      
        0x0800173a:    4803        .H      LDR      r0,[pc,#12] ; [0x8001748] = 0x40021000
        0x0800173c:    6840        @h      LDR      r0,[r0,#4]
        0x0800173e:    f3c00081    ....    UBFX     r0,r0,#2,#2
        0x08001742:    2802        .(      CMP      r0,#2
        0x08001744:    d1f9        ..      BNE      0x800173a ; SystemClock72M + 198
        0x08001746:    bd08        ..      POP      {r3,pc}
    $d
        0x08001748:    40021000    ...@    DCD    1073876992
        0x0800174c:    40022000    . .@    DCD    1073881088
    $t
    i.SystemClockConfig
    SystemClockConfig
        0x08001750:    b510        ..      PUSH     {r4,lr}
        0x08001752:    f7ffff8f    ....    BL       SystemClock72M ; 0x8001674
        0x08001756:    bd10        ..      POP      {r4,pc}
    i.SystemInit
    SystemInit
        0x08001758:    b510        ..      PUSH     {r4,lr}
        0x0800175a:    4813        .H      LDR      r0,[pc,#76] ; [0x80017a8] = 0x40021000
        0x0800175c:    6800        .h      LDR      r0,[r0,#0]
        0x0800175e:    f0200001     ...    BIC      r0,r0,#1
        0x08001762:    1c40        @.      ADDS     r0,r0,#1
        0x08001764:    4910        .I      LDR      r1,[pc,#64] ; [0x80017a8] = 0x40021000
        0x08001766:    6008        .`      STR      r0,[r1,#0]
        0x08001768:    4608        .F      MOV      r0,r1
        0x0800176a:    6840        @h      LDR      r0,[r0,#4]
        0x0800176c:    490f        .I      LDR      r1,[pc,#60] ; [0x80017ac] = 0xf8ff0000
        0x0800176e:    4008        .@      ANDS     r0,r0,r1
        0x08001770:    490d        .I      LDR      r1,[pc,#52] ; [0x80017a8] = 0x40021000
        0x08001772:    6048        H`      STR      r0,[r1,#4]
        0x08001774:    4608        .F      MOV      r0,r1
        0x08001776:    6800        .h      LDR      r0,[r0,#0]
        0x08001778:    490d        .I      LDR      r1,[pc,#52] ; [0x80017b0] = 0xfef6ffff
        0x0800177a:    4008        .@      ANDS     r0,r0,r1
        0x0800177c:    490a        .I      LDR      r1,[pc,#40] ; [0x80017a8] = 0x40021000
        0x0800177e:    6008        .`      STR      r0,[r1,#0]
        0x08001780:    4608        .F      MOV      r0,r1
        0x08001782:    6800        .h      LDR      r0,[r0,#0]
        0x08001784:    f4202080     ..     BIC      r0,r0,#0x40000
        0x08001788:    6008        .`      STR      r0,[r1,#0]
        0x0800178a:    4608        .F      MOV      r0,r1
        0x0800178c:    6840        @h      LDR      r0,[r0,#4]
        0x0800178e:    f42000fe     ...    BIC      r0,r0,#0x7f0000
        0x08001792:    6048        H`      STR      r0,[r1,#4]
        0x08001794:    f44f001f    O...    MOV      r0,#0x9f0000
        0x08001798:    6088        .`      STR      r0,[r1,#8]
        0x0800179a:    f7ffffd9    ....    BL       SystemClockConfig ; 0x8001750
        0x0800179e:    f04f6000    O..`    MOV      r0,#0x8000000
        0x080017a2:    4904        .I      LDR      r1,[pc,#16] ; [0x80017b4] = 0xe000ed08
        0x080017a4:    6008        .`      STR      r0,[r1,#0]
        0x080017a6:    bd10        ..      POP      {r4,pc}
    $d
        0x080017a8:    40021000    ...@    DCD    1073876992
        0x080017ac:    f8ff0000    ....    DCD    4177461248
        0x080017b0:    fef6ffff    ....    DCD    4277600255
        0x080017b4:    e000ed08    ....    DCD    3758157064
    $t
    i.UsageFault_Handler
    UsageFault_Handler
        0x080017b8:    bf00        ..      NOP      
        0x080017ba:    e7fe        ..      B        0x80017ba ; UsageFault_Handler + 2
    i._is_digit
    _is_digit
        0x080017bc:    3830        08      SUBS     r0,r0,#0x30
        0x080017be:    280a        .(      CMP      r0,#0xa
        0x080017c0:    d201        ..      BCS      0x80017c6 ; _is_digit + 10
        0x080017c2:    2001        .       MOVS     r0,#1
        0x080017c4:    4770        pG      BX       lr
        0x080017c6:    2000        .       MOVS     r0,#0
        0x080017c8:    4770        pG      BX       lr
        0x080017ca:    0000        ..      MOVS     r0,r0
    i.delay_init
    delay_init
        0x080017cc:    b510        ..      PUSH     {r4,lr}
        0x080017ce:    2000        .       MOVS     r0,#0
        0x080017d0:    f7ffff3a    ..:.    BL       SysTick_ConfigCLKSource ; 0x8001648
        0x080017d4:    4809        .H      LDR      r0,[pc,#36] ; [0x80017fc] = 0x20000000
        0x080017d6:    6800        .h      LDR      r0,[r0,#0]
        0x080017d8:    4909        .I      LDR      r1,[pc,#36] ; [0x8001800] = 0x7a1200
        0x080017da:    fbb0f0f1    ....    UDIV     r0,r0,r1
        0x080017de:    4909        .I      LDR      r1,[pc,#36] ; [0x8001804] = 0x20000004
        0x080017e0:    7008        .p      STRB     r0,[r1,#0]
        0x080017e2:    4608        .F      MOV      r0,r1
        0x080017e4:    7800        .x      LDRB     r0,[r0,#0]
        0x080017e6:    eb000140    ..@.    ADD      r1,r0,r0,LSL #1
        0x080017ea:    ebc110c0    ....    RSB      r0,r1,r0,LSL #7
        0x080017ee:    f64f71ff    O..q    MOV      r1,#0xffff
        0x080017f2:    ea0100c0    ....    AND      r0,r1,r0,LSL #3
        0x080017f6:    4904        .I      LDR      r1,[pc,#16] ; [0x8001808] = 0x20000006
        0x080017f8:    8008        ..      STRH     r0,[r1,#0]
        0x080017fa:    bd10        ..      POP      {r4,pc}
    $d
        0x080017fc:    20000000    ...     DCD    536870912
        0x08001800:    007a1200    ..z.    DCD    8000000
        0x08001804:    20000004    ...     DCD    536870916
        0x08001808:    20000006    ...     DCD    536870918
    $t
    i.delay_ms
    delay_ms
        0x0800180c:    4601        .F      MOV      r1,r0
        0x0800180e:    4a11        .J      LDR      r2,[pc,#68] ; [0x8001854] = 0x20000006
        0x08001810:    8812        ..      LDRH     r2,[r2,#0]
        0x08001812:    434a        JC      MULS     r2,r1,r2
        0x08001814:    f04f23e0    O..#    MOV      r3,#0xe000e000
        0x08001818:    615a        Za      STR      r2,[r3,#0x14]
        0x0800181a:    2200        ."      MOVS     r2,#0
        0x0800181c:    619a        .a      STR      r2,[r3,#0x18]
        0x0800181e:    461a        .F      MOV      r2,r3
        0x08001820:    6912        .i      LDR      r2,[r2,#0x10]
        0x08001822:    f0420201    B...    ORR      r2,r2,#1
        0x08001826:    611a        .a      STR      r2,[r3,#0x10]
        0x08001828:    bf00        ..      NOP      
        0x0800182a:    f04f22e0    O.."    MOV      r2,#0xe000e000
        0x0800182e:    6910        .i      LDR      r0,[r2,#0x10]
        0x08001830:    f0000201    ....    AND      r2,r0,#1
        0x08001834:    b11a        ..      CBZ      r2,0x800183e ; delay_ms + 50
        0x08001836:    f4003280    ...2    AND      r2,r0,#0x10000
        0x0800183a:    2a00        .*      CMP      r2,#0
        0x0800183c:    d0f5        ..      BEQ      0x800182a ; delay_ms + 30
        0x0800183e:    f04f22e0    O.."    MOV      r2,#0xe000e000
        0x08001842:    6912        .i      LDR      r2,[r2,#0x10]
        0x08001844:    f0220201    "...    BIC      r2,r2,#1
        0x08001848:    f04f23e0    O..#    MOV      r3,#0xe000e000
        0x0800184c:    611a        .a      STR      r2,[r3,#0x10]
        0x0800184e:    2200        ."      MOVS     r2,#0
        0x08001850:    619a        .a      STR      r2,[r3,#0x18]
        0x08001852:    4770        pG      BX       lr
    $d
        0x08001854:    20000006    ...     DCD    536870918
    $t
    i.main
    main
        0x08001858:    b086        ..      SUB      sp,sp,#0x18
        0x0800185a:    2400        .$      MOVS     r4,#0
        0x0800185c:    f7ffffb6    ....    BL       delay_init ; 0x80017cc
        0x08001860:    f7feff66    ..f.    BL       LCD_HReset_Init ; 0x8000730
        0x08001864:    2120         !      MOVS     r1,#0x20
        0x08001866:    484d        MH      LDR      r0,[pc,#308] ; [0x800199c] = 0x40010c00
        0x08001868:    f7fefee5    ....    BL       GPIO_ResetBit ; 0x8000636
        0x0800186c:    20c8        .       MOVS     r0,#0xc8
        0x0800186e:    f7ffffcd    ....    BL       delay_ms ; 0x800180c
        0x08001872:    2120         !      MOVS     r1,#0x20
        0x08001874:    4849        IH      LDR      r0,[pc,#292] ; [0x800199c] = 0x40010c00
        0x08001876:    f7fefee0    ....    BL       GPIO_SetBit ; 0x800063a
        0x0800187a:    f7fefee3    ....    BL       LCD_Backligh_Init ; 0x8000644
        0x0800187e:    f7feff6b    ..k.    BL       LCD_Init ; 0x8000758
        0x08001882:    4847        GH      LDR      r0,[pc,#284] ; [0x80019a0] = 0x2000000c
        0x08001884:    8882        ..      LDRH     r2,[r0,#4]
        0x08001886:    a147        G.      ADR      r1,{pc}+0x11e ; 0x80019a4
        0x08001888:    a803        ..      ADD      r0,sp,#0xc
        0x0800188a:    f7fefccd    ....    BL       __2sprintf ; 0x8000228
        0x0800188e:    e083        ..      B        0x8001998 ; main + 320
        0x08001890:    2c0c        .,      CMP      r4,#0xc
        0x08001892:    d241        A.      BCS      0x8001918 ; main + 192
        0x08001894:    e8dff004    ....    TBB      [pc,r4]
    $d
        0x08001898:    130f0b06    ....    DCD    319752966
        0x0800189c:    27221d18    .."'    DCD    656547096
        0x080018a0:    3b36312c    ,16;    DCD    993407276
    $t
        0x080018a4:    f64f70ff    O..p    MOV      r0,#0xffff
        0x080018a8:    f7fefee0    ....    BL       LCD_Clear ; 0x800066c
        0x080018ac:    e034        4.      B        0x8001918 ; main + 192
        0x080018ae:    2000        .       MOVS     r0,#0
        0x080018b0:    f7fefedc    ....    BL       LCD_Clear ; 0x800066c
        0x080018b4:    e030        0.      B        0x8001918 ; main + 192
        0x080018b6:    201f        .       MOVS     r0,#0x1f
        0x080018b8:    f7fefed8    ....    BL       LCD_Clear ; 0x800066c
        0x080018bc:    e02c        ,.      B        0x8001918 ; main + 192
        0x080018be:    f44f4078    O.x@    MOV      r0,#0xf800
        0x080018c2:    f7fefed3    ....    BL       LCD_Clear ; 0x800066c
        0x080018c6:    e027        '.      B        0x8001918 ; main + 192
        0x080018c8:    f64f001f    O...    MOV      r0,#0xf81f
        0x080018cc:    f7fefece    ....    BL       LCD_Clear ; 0x800066c
        0x080018d0:    e022        ".      B        0x8001918 ; main + 192
        0x080018d2:    f44f60fc    O..`    MOV      r0,#0x7e0
        0x080018d6:    f7fefec9    ....    BL       LCD_Clear ; 0x800066c
        0x080018da:    e01d        ..      B        0x8001918 ; main + 192
        0x080018dc:    f64770ff    G..p    MOV      r0,#0x7fff
        0x080018e0:    f7fefec4    ....    BL       LCD_Clear ; 0x800066c
        0x080018e4:    e018        ..      B        0x8001918 ; main + 192
        0x080018e6:    f64f70e0    O..p    MOV      r0,#0xffe0
        0x080018ea:    f7fefebf    ....    BL       LCD_Clear ; 0x800066c
        0x080018ee:    e013        ..      B        0x8001918 ; main + 192
        0x080018f0:    f64f4007    O..@    MOV      r0,#0xfc07
        0x080018f4:    f7fefeba    ....    BL       LCD_Clear ; 0x800066c
        0x080018f8:    e00e        ..      B        0x8001918 ; main + 192
        0x080018fa:    f2484030    H.0@    MOV      r0,#0x8430
        0x080018fe:    f7fefeb5    ....    BL       LCD_Clear ; 0x800066c
        0x08001902:    e009        ..      B        0x8001918 ; main + 192
        0x08001904:    f24c6018    L..`    MOV      r0,#0xc618
        0x08001908:    f7fefeb0    ....    BL       LCD_Clear ; 0x800066c
        0x0800190c:    e004        ..      B        0x8001918 ; main + 192
        0x0800190e:    f64b4040    K.@@    MOV      r0,#0xbc40
        0x08001912:    f7fefeab    ....    BL       LCD_Clear ; 0x800066c
        0x08001916:    bf00        ..      NOP      
        0x08001918:    bf00        ..      NOP      
        0x0800191a:    f44f4078    O.x@    MOV      r0,#0xf800
        0x0800191e:    4924        $I      LDR      r1,[pc,#144] ; [0x80019b0] = 0x20000008
        0x08001920:    8008        ..      STRH     r0,[r1,#0]
        0x08001922:    a024        $.      ADR      r0,{pc}+0x92 ; 0x80019b4
        0x08001924:    2118        .!      MOVS     r1,#0x18
        0x08001926:    460b        .F      MOV      r3,r1
        0x08001928:    22d2        ."      MOVS     r2,#0xd2
        0x0800192a:    e9cd1000    ....    STRD     r1,r0,[sp,#0]
        0x0800192e:    2128        (!      MOVS     r1,#0x28
        0x08001930:    201e        .       MOVS     r0,#0x1e
        0x08001932:    f7fff9f1    ....    BL       LCD_ShowString ; 0x8000d18
        0x08001936:    a022        ".      ADR      r0,{pc}+0x8a ; 0x80019c0
        0x08001938:    2110        .!      MOVS     r1,#0x10
        0x0800193a:    460b        .F      MOV      r3,r1
        0x0800193c:    22c8        ."      MOVS     r2,#0xc8
        0x0800193e:    e9cd1000    ....    STRD     r1,r0,[sp,#0]
        0x08001942:    2146        F!      MOVS     r1,#0x46
        0x08001944:    201e        .       MOVS     r0,#0x1e
        0x08001946:    f7fff9e7    ....    BL       LCD_ShowString ; 0x8000d18
        0x0800194a:    a020         .      ADR      r0,{pc}+0x82 ; 0x80019cc
        0x0800194c:    2110        .!      MOVS     r1,#0x10
        0x0800194e:    460b        .F      MOV      r3,r1
        0x08001950:    22c8        ."      MOVS     r2,#0xc8
        0x08001952:    e9cd1000    ....    STRD     r1,r0,[sp,#0]
        0x08001956:    215a        Z!      MOVS     r1,#0x5a
        0x08001958:    201e        .       MOVS     r0,#0x1e
        0x0800195a:    f7fff9dd    ....    BL       LCD_ShowString ; 0x8000d18
        0x0800195e:    a803        ..      ADD      r0,sp,#0xc
        0x08001960:    2110        .!      MOVS     r1,#0x10
        0x08001962:    460b        .F      MOV      r3,r1
        0x08001964:    22c8        ."      MOVS     r2,#0xc8
        0x08001966:    e9cd1000    ....    STRD     r1,r0,[sp,#0]
        0x0800196a:    216e        n!      MOVS     r1,#0x6e
        0x0800196c:    201e        .       MOVS     r0,#0x1e
        0x0800196e:    f7fff9d3    ....    BL       LCD_ShowString ; 0x8000d18
        0x08001972:    a019        ..      ADR      r0,{pc}+0x66 ; 0x80019d8
        0x08001974:    210c        .!      MOVS     r1,#0xc
        0x08001976:    460b        .F      MOV      r3,r1
        0x08001978:    22c8        ."      MOVS     r2,#0xc8
        0x0800197a:    e9cd1000    ....    STRD     r1,r0,[sp,#0]
        0x0800197e:    2182        .!      MOVS     r1,#0x82
        0x08001980:    201e        .       MOVS     r0,#0x1e
        0x08001982:    f7fff9c9    ....    BL       LCD_ShowString ; 0x8000d18
        0x08001986:    1c60        `.      ADDS     r0,r4,#1
        0x08001988:    b2c4        ..      UXTB     r4,r0
        0x0800198a:    2c0c        .,      CMP      r4,#0xc
        0x0800198c:    d100        ..      BNE      0x8001990 ; main + 312
        0x0800198e:    2400        .$      MOVS     r4,#0
        0x08001990:    f44f707a    O.zp    MOV      r0,#0x3e8
        0x08001994:    f7ffff3a    ..:.    BL       delay_ms ; 0x800180c
        0x08001998:    e77a        z.      B        0x8001890 ; main + 56
    $d
        0x0800199a:    0000        ..      DCW    0
        0x0800199c:    40010c00    ...@    DCD    1073810432
        0x080019a0:    2000000c    ...     DCD    536870924
        0x080019a4:    2044434c    LCD     DCD    541344588
        0x080019a8:    253a4449    ID:%    DCD    624575561
        0x080019ac:    00583430    04X.    DCD    5780528
        0x080019b0:    20000008    ...     DCD    536870920
        0x080019b4:    48454547    GEEH    DCD    1212499271
        0x080019b8:    5f5e2059    Y ^_    DCD    1600004185
        0x080019bc:    0000005e    ^...    DCD    94
        0x080019c0:    4c544654    TFTL    DCD    1280591444
        0x080019c4:    54204443    CD T    DCD    1411400771
        0x080019c8:    00545345    EST.    DCD    5526341
        0x080019cc:    334d5041    APM3    DCD    860704833
        0x080019d0:    30314532    2E10    DCD    808535346
        0x080019d4:    00000033    3...    DCD    51
        0x080019d8:    32323032    2022    DCD    842149938
        0x080019dc:    2f30312f    /10/    DCD    791687471
        0x080019e0:    00003031    10..    DCD    12337
    $d.realdata
    .constdata
    asc2_1206
        0x080019e4:    00000000    ....    DCD    0
        0x080019e8:    00000000    ....    DCD    0
        0x080019ec:    00000000    ....    DCD    0
        0x080019f0:    00000000    ....    DCD    0
        0x080019f4:    0000403f    ?@..    DCD    16447
        0x080019f8:    00000000    ....    DCD    0
        0x080019fc:    00300000    ..0.    DCD    3145728
        0x08001a00:    00300040    @.0.    DCD    3145792
        0x08001a04:    00000040    @...    DCD    64
        0x08001a08:    c00b0009    ....    DCD    3221946377
        0x08001a0c:    c00b003d    =...    DCD    3221946429
        0x08001a10:    0009003d    =...    DCD    589885
        0x08001a14:    4024c018    ..$@    DCD    1076150296
        0x08001a18:    4022e07f    .."@    DCD    1076027519
        0x08001a1c:    00008031    1...    DCD    32817
        0x08001a20:    c0240018    ..$.    DCD    3223584792
        0x08001a24:    800d001b    ....    DCD    2148335643
        0x08001a28:    80014032    2@..    DCD    2147565618
        0x08001a2c:    401c8003    ...@    DCD    1075609603
        0x08001a30:    801c4027    '@..    DCD    2149335079
        0x08001a34:    40004007    .@.@    DCD    1073758215
        0x08001a38:    00600010    ..`.    DCD    6291472
        0x08001a3c:    00000000    ....    DCD    0
        0x08001a40:    00000000    ....    DCD    0
        0x08001a44:    00000000    ....    DCD    0
        0x08001a48:    801f0000    ....    DCD    2149515264
        0x08001a4c:    20404020     @@     DCD    541081632
        0x08001a50:    20400000    ..@     DCD    541065216
        0x08001a54:    801f4020     @..    DCD    2149531680
        0x08001a58:    00000000    ....    DCD    0
        0x08001a5c:    00060009    ....    DCD    393225
        0x08001a60:    0006801f    ....    DCD    426015
        0x08001a64:    00000009    ....    DCD    9
        0x08001a68:    00040004    ....    DCD    262148
        0x08001a6c:    0004803f    ?...    DCD    294975
        0x08001a70:    00000004    ....    DCD    4
        0x08001a74:    60001000    ...`    DCD    1610616832
        0x08001a78:    00000000    ....    DCD    0
        0x08001a7c:    00000000    ....    DCD    0
        0x08001a80:    00040004    ....    DCD    262148
        0x08001a84:    00040004    ....    DCD    262148
        0x08001a88:    00000004    ....    DCD    4
        0x08001a8c:    40000000    ...@    DCD    1073741824
        0x08001a90:    00000000    ....    DCD    0
        0x08001a94:    00000000    ....    DCD    0
        0x08001a98:    c0012000    . ..    DCD    3221299200
        0x08001a9c:    00380006    ..8.    DCD    3670022
        0x08001aa0:    00000040    @...    DCD    64
        0x08001aa4:    4020801f    .. @    DCD    1075871775
        0x08001aa8:    40204020     @ @    DCD    1075855392
        0x08001aac:    0000801f    ....    DCD    32799
        0x08001ab0:    40100000    ...@    DCD    1074790400
        0x08001ab4:    4000c03f    ?..@    DCD    1073791039
        0x08001ab8:    00000000    ....    DCD    0
        0x08001abc:    4021c018    ..!@    DCD    1075953688
        0x08001ac0:    40244022    "@$@    DCD    1076117538
        0x08001ac4:    00004018    .@..    DCD    16408
        0x08001ac8:    40208010    .. @    DCD    1075871760
        0x08001acc:    40244024    $@$@    DCD    1076117540
        0x08001ad0:    0000801b    ....    DCD    32795
        0x08001ad4:    000d0002    ....    DCD    851970
        0x08001ad8:    c03f0011    ..?.    DCD    3225354257
        0x08001adc:    00004001    .@..    DCD    16385
        0x08001ae0:    4024803c    <.$@    DCD    1076133948
        0x08001ae4:    40244024    $@$@    DCD    1076117540
        0x08001ae8:    00008023    #...    DCD    32803
        0x08001aec:    4024801f    ..$@    DCD    1076133919
        0x08001af0:    40344024    $@4@    DCD    1077166116
        0x08001af4:    00008003    ....    DCD    32771
        0x08001af8:    00200030    0. .    DCD    2097200
        0x08001afc:    0038c027    '.8.    DCD    3719207
        0x08001b00:    00000020     ...    DCD    32
        0x08001b04:    4024801b    ..$@    DCD    1076133915
        0x08001b08:    40244024    $@$@    DCD    1076117540
        0x08001b0c:    0000801b    ....    DCD    32795
        0x08001b10:    c022001c    ..".    DCD    3223453724
        0x08001b14:    40224022    "@"@    DCD    1075986466
        0x08001b18:    0000801f    ....    DCD    32799
        0x08001b1c:    00000000    ....    DCD    0
        0x08001b20:    00004008    .@..    DCD    16392
        0x08001b24:    00000000    ....    DCD    0
        0x08001b28:    00000000    ....    DCD    0
        0x08001b2c:    00006004    .`..    DCD    24580
        0x08001b30:    00000000    ....    DCD    0
        0x08001b34:    00040000    ....    DCD    262144
        0x08001b38:    0011000a    ....    DCD    1114122
        0x08001b3c:    40408020     .@@    DCD    1077968928
        0x08001b40:    00090009    ....    DCD    589833
        0x08001b44:    00090009    ....    DCD    589833
        0x08001b48:    00000009    ....    DCD    9
        0x08001b4c:    40400000    ..@@    DCD    1077936128
        0x08001b50:    00118020     ...    DCD    1146912
        0x08001b54:    0004000a    ....    DCD    262154
        0x08001b58:    00200018    .. .    DCD    2097176
        0x08001b5c:    00244023    #@$.    DCD    2375715
        0x08001b60:    00000018    ....    DCD    24
        0x08001b64:    4020801f    .. @    DCD    1075871775
        0x08001b68:    40294027    '@)@    DCD    1076445223
        0x08001b6c:    0000401f    .@..    DCD    16415
        0x08001b70:    c0074000    .@..    DCD    3221700608
        0x08001b74:    000f0039    9...    DCD    983097
        0x08001b78:    4000c001    ...@    DCD    1073790977
        0x08001b7c:    c03f4020     @?.    DCD    3225370656
        0x08001b80:    40244024    $@$@    DCD    1076117540
        0x08001b84:    0000801b    ....    DCD    32795
        0x08001b88:    4020801f    .. @    DCD    1075871775
        0x08001b8c:    40204020     @ @    DCD    1075855392
        0x08001b90:    00008030    0...    DCD    32816
        0x08001b94:    c03f4020     @?.    DCD    3225370656
        0x08001b98:    40204020     @ @    DCD    1075855392
        0x08001b9c:    0000801f    ....    DCD    32799
        0x08001ba0:    c03f4020     @?.    DCD    3225370656
        0x08001ba4:    402e4024    $@.@    DCD    1076772900
        0x08001ba8:    0000c030    0...    DCD    49200
        0x08001bac:    c03f4020     @?.    DCD    3225370656
        0x08001bb0:    002e4024    $@..    DCD    3031076
        0x08001bb4:    00000030    0...    DCD    48
        0x08001bb8:    8010000f    ....    DCD    2148532239
        0x08001bbc:    40224020     @"@    DCD    1075986464
        0x08001bc0:    00028033    3...    DCD    163891
        0x08001bc4:    c03f4020     @?.    DCD    3225370656
        0x08001bc8:    00040004    ....    DCD    262148
        0x08001bcc:    4020c03f    ?. @    DCD    1075888191
        0x08001bd0:    40204020     @ @    DCD    1075855392
        0x08001bd4:    4020c03f    ?. @    DCD    1075888191
        0x08001bd8:    00004020     @..    DCD    16416
        0x08001bdc:    20206000    .`      DCD    538992640
        0x08001be0:    c03f2020      ?.    DCD    3225362464
        0x08001be4:    00200020     . .    DCD    2097184
        0x08001be8:    c03f4020     @?.    DCD    3225370656
        0x08001bec:    000b4024    $@..    DCD    737316
        0x08001bf0:    4020c030    0. @    DCD    1075888176
        0x08001bf4:    c03f4020     @?.    DCD    3225370656
        0x08001bf8:    40004020     @.@    DCD    1073758240
        0x08001bfc:    c0004000    .@..    DCD    3221241856
        0x08001c00:    003cc03f    ?.<.    DCD    3981375
        0x08001c04:    003cc003    ..<.    DCD    3981315
        0x08001c08:    0000c03f    ?...    DCD    49215
        0x08001c0c:    c03f4020     @?.    DCD    3225370656
        0x08001c10:    0023400c    .@#.    DCD    2310156
        0x08001c14:    0020c03f    ?. .    DCD    2146367
        0x08001c18:    4020801f    .. @    DCD    1075871775
        0x08001c1c:    40204020     @ @    DCD    1075855392
        0x08001c20:    0000801f    ....    DCD    32799
        0x08001c24:    c03f4020     @?.    DCD    3225370656
        0x08001c28:    00244024    $@$.    DCD    2375716
        0x08001c2c:    00000018    ....    DCD    24
        0x08001c30:    4021801f    ..!@    DCD    1075937311
        0x08001c34:    e0204021    !@ .    DCD    3760209953
        0x08001c38:    0000a01f    ....    DCD    40991
        0x08001c3c:    c03f4020     @?.    DCD    3225370656
        0x08001c40:    00264024    $@&.    DCD    2506788
        0x08001c44:    4000c019    ...@    DCD    1073791001
        0x08001c48:    4024c018    ..$@    DCD    1076150296
        0x08001c4c:    40224024    $@"@    DCD    1075986468
        0x08001c50:    00008031    1...    DCD    32817
        0x08001c54:    40200030    0. @    DCD    1075839024
        0x08001c58:    4020c03f    ?. @    DCD    1075888191
        0x08001c5c:    00000030    0...    DCD    48
        0x08001c60:    803f0020     .?.    DCD    2151612448
        0x08001c64:    40004000    .@.@    DCD    1073758208
        0x08001c68:    0020803f    ?. .    DCD    2129983
        0x08001c6c:    003e0020     .>.    DCD    4063264
        0x08001c70:    0007c001    ....    DCD    507905
        0x08001c74:    00200038    8. .    DCD    2097208
        0x08001c78:    c0070038    8...    DCD    3221684280
        0x08001c7c:    c007003c    <...    DCD    3221684284
        0x08001c80:    00000038    8...    DCD    56
        0x08001c84:    c0394020     @9.    DCD    3224977440
        0x08001c88:    c0390006    ..9.    DCD    3224961030
        0x08001c8c:    00004020     @..    DCD    16416
        0x08001c90:    40380020     .8@    DCD    1077411872
        0x08001c94:    4038c007    ..8@    DCD    1077460999
        0x08001c98:    00000020     ...    DCD    32
        0x08001c9c:    c0214030    0@!.    DCD    3223404592
        0x08001ca0:    40384026    &@8@    DCD    1077428262
        0x08001ca4:    0000c020     ...    DCD    49184
        0x08001ca8:    00000000    ....    DCD    0
        0x08001cac:    2040e07f    ..@     DCD    541122687
        0x08001cb0:    00002040    @ ..    DCD    8256
        0x08001cb4:    00700000    ..p.    DCD    7340032
        0x08001cb8:    8003000c    ....    DCD    2147680268
        0x08001cbc:    00004000    .@..    DCD    16384
        0x08001cc0:    20400000    ..@     DCD    541065216
        0x08001cc4:    e07f2040    @ ..    DCD    3766427712
        0x08001cc8:    00000000    ....    DCD    0
        0x08001ccc:    00200000    .. .    DCD    2097152
        0x08001cd0:    00200040    @. .    DCD    2097216
        0x08001cd4:    00000000    ....    DCD    0
        0x08001cd8:    10001000    ....    DCD    268439552
        0x08001cdc:    10001000    ....    DCD    268439552
        0x08001ce0:    10001000    ....    DCD    268439552
        0x08001ce4:    00000000    ....    DCD    0
        0x08001ce8:    00000040    @...    DCD    64
        0x08001cec:    00000000    ....    DCD    0
        0x08001cf0:    80020000    ....    DCD    2147614720
        0x08001cf4:    40054005    .@.@    DCD    1074085893
        0x08001cf8:    4000c003    ...@    DCD    1073790979
        0x08001cfc:    c03f0020     .?.    DCD    3225354272
        0x08001d00:    40044004    .@.@    DCD    1074020356
        0x08001d04:    00008003    ....    DCD    32771
        0x08001d08:    80030000    ....    DCD    2147680256
        0x08001d0c:    40044004    .@.@    DCD    1074020356
        0x08001d10:    00004006    .@..    DCD    16390
        0x08001d14:    80030000    ....    DCD    2147680256
        0x08001d18:    40244004    .@$@    DCD    1076117508
        0x08001d1c:    4000c03f    ?..@    DCD    1073791039
        0x08001d20:    80030000    ....    DCD    2147680256
        0x08001d24:    40054005    .@.@    DCD    1074085893
        0x08001d28:    00004003    .@..    DCD    16387
        0x08001d2c:    40040000    ...@    DCD    1074003968
        0x08001d30:    4024c01f    ..$@    DCD    1076150303
        0x08001d34:    00204024    $@ .    DCD    2113572
        0x08001d38:    e0020000    ....    DCD    3758227456
        0x08001d3c:    50055005    .P.P    DCD    1342525445
        0x08001d40:    20045006    .P.     DCD    537153542
        0x08001d44:    c03f4020     @?.    DCD    3225370656
        0x08001d48:    00044004    .@..    DCD    278532
        0x08001d4c:    4000c003    ...@    DCD    1073790979
        0x08001d50:    40040000    ...@    DCD    1074003968
        0x08001d54:    4000c027    '..@    DCD    1073791015
        0x08001d58:    00000000    ....    DCD    0
        0x08001d5c:    10001000    ....    DCD    268439552
        0x08001d60:    e0271004    ..'.    DCD    3760656388
        0x08001d64:    00000000    ....    DCD    0
        0x08001d68:    c03f4020     @?.    DCD    3225370656
        0x08001d6c:    00074001    .@..    DCD    475137
        0x08001d70:    4004c004    ...@    DCD    1074053124
        0x08001d74:    40204020     @ @    DCD    1075855392
        0x08001d78:    4000c03f    ?..@    DCD    1073791039
        0x08001d7c:    00004000    .@..    DCD    16384
        0x08001d80:    0004c007    ....    DCD    311303
        0x08001d84:    0004c007    ....    DCD    311303
        0x08001d88:    0000c003    ....    DCD    49155
        0x08001d8c:    c0074004    .@..    DCD    3221700612
        0x08001d90:    00044004    .@..    DCD    278532
        0x08001d94:    4000c003    ...@    DCD    1073790979
        0x08001d98:    80030000    ....    DCD    2147680256
        0x08001d9c:    40044004    .@.@    DCD    1074020356
        0x08001da0:    00008003    ....    DCD    32771
        0x08001da4:    f0071004    ....    DCD    4026994692
        0x08001da8:    40045004    .P.@    DCD    1074024452
        0x08001dac:    00008003    ....    DCD    32771
        0x08001db0:    80030000    ....    DCD    2147680256
        0x08001db4:    50044004    .@.P    DCD    1342455812
        0x08001db8:    1000f007    ....    DCD    268496903
        0x08001dbc:    c0074004    .@..    DCD    3221700612
        0x08001dc0:    00044002    .@..    DCD    278530
        0x08001dc4:    00000004    ....    DCD    4
        0x08001dc8:    40060000    ...@    DCD    1074135040
        0x08001dcc:    40054005    .@.@    DCD    1074085893
        0x08001dd0:    0000c004    ....    DCD    49156
        0x08001dd4:    00040000    ....    DCD    262144
        0x08001dd8:    4004801f    ...@    DCD    1074036767
        0x08001ddc:    00004000    .@..    DCD    16384
        0x08001de0:    80070004    ....    DCD    2147942404
        0x08001de4:    40044000    .@.@    DCD    1074020352
        0x08001de8:    4000c007    ...@    DCD    1073790983
        0x08001dec:    00070004    ....    DCD    458756
        0x08001df0:    8001c004    ....    DCD    2147598340
        0x08001df4:    00040006    ....    DCD    262150
        0x08001df8:    c0010006    ....    DCD    3221291014
        0x08001dfc:    c0010007    ....    DCD    3221291015
        0x08001e00:    00000006    ....    DCD    6
        0x08001e04:    c0064004    .@..    DCD    3221635076
        0x08001e08:    c0060001    ....    DCD    3221618689
        0x08001e0c:    00004004    .@..    DCD    16388
        0x08001e10:    10071004    ....    DCD    268898308
        0x08001e14:    8001e004    ....    DCD    2147606532
        0x08001e18:    00040006    ....    DCD    262150
        0x08001e1c:    40040000    ...@    DCD    1074003968
        0x08001e20:    4006c005    ...@    DCD    1074184197
        0x08001e24:    00004004    .@..    DCD    16388
        0x08001e28:    00000000    ....    DCD    0
        0x08001e2c:    e07b0004    ..{.    DCD    3766157316
        0x08001e30:    00002040    @ ..    DCD    8256
        0x08001e34:    00000000    ....    DCD    0
        0x08001e38:    f0ff0000    ....    DCD    4043243520
        0x08001e3c:    00000000    ....    DCD    0
        0x08001e40:    20400000    ..@     DCD    541065216
        0x08001e44:    0004e07b    {...    DCD    319611
        0x08001e48:    00000000    ....    DCD    0
        0x08001e4c:    00800040    @...    DCD    8388672
        0x08001e50:    00200040    @. .    DCD    2097216
        0x08001e54:    00400020     .@.    DCD    4194336
    asc2_1608
        0x08001e58:    00000000    ....    DCD    0
        0x08001e5c:    00000000    ....    DCD    0
        0x08001e60:    00000000    ....    DCD    0
        0x08001e64:    00000000    ....    DCD    0
        0x08001e68:    00000000    ....    DCD    0
        0x08001e6c:    cc1f0000    ....    DCD    3424583680
        0x08001e70:    00000c00    ....    DCD    3072
        0x08001e74:    00000000    ....    DCD    0
        0x08001e78:    00080000    ....    DCD    524288
        0x08001e7c:    00600030    0.`.    DCD    6291504
        0x08001e80:    00300008    ..0.    DCD    3145736
        0x08001e84:    00000060    `...    DCD    96
        0x08001e88:    fc032002    . ..    DCD    4228063234
        0x08001e8c:    2002201e    . .     DCD    537010206
        0x08001e90:    201efc03    ...     DCD    538901507
        0x08001e94:    00002002    . ..    DCD    8194
        0x08001e98:    180e0000    ....    DCD    403570688
        0x08001e9c:    ff3f0411    ..?.    DCD    4282319889
        0x08001ea0:    780c8410    ...x    DCD    2014086160
        0x08001ea4:    00000000    ....    DCD    0
        0x08001ea8:    8410000f    ....    DCD    2215641103
        0x08001eac:    c000380f    .8..    DCD    3221239823
        0x08001eb0:    84187807    .x..    DCD    2216196103
        0x08001eb4:    00007800    .x..    DCD    30720
        0x08001eb8:    840f7800    .x..    DCD    2215606272
        0x08001ebc:    2411c410    ...$    DCD    605144080
        0x08001ec0:    e400980e    ....    DCD    3825244174
        0x08001ec4:    08008400    ....    DCD    134251520
        0x08001ec8:    00680008    ..h.    DCD    6815752
        0x08001ecc:    00000070    p...    DCD    112
        0x08001ed0:    00000000    ....    DCD    0
        0x08001ed4:    00000000    ....    DCD    0
        0x08001ed8:    00000000    ....    DCD    0
        0x08001edc:    e0070000    ....    DCD    3758555136
        0x08001ee0:    04201818    .. .    DCD    69212184
        0x08001ee4:    00000240    @...    DCD    576
        0x08001ee8:    02400000    ..@.    DCD    37748736
        0x08001eec:    18180420     ...    DCD    404227104
        0x08001ef0:    0000e007    ....    DCD    57351
        0x08001ef4:    00000000    ....    DCD    0
        0x08001ef8:    40024002    .@.@    DCD    1073889282
        0x08001efc:    f00f8001    ....    DCD    4027547649
        0x08001f00:    40028001    ...@    DCD    1073905665
        0x08001f04:    00004002    .@..    DCD    16386
        0x08001f08:    80008000    ....    DCD    2147516416
        0x08001f0c:    f80f8000    ....    DCD    4161765376
        0x08001f10:    80008000    ....    DCD    2147516416
        0x08001f14:    00008000    ....    DCD    32768
        0x08001f18:    0d000100    ....    DCD    218104064
        0x08001f1c:    00000e00    ....    DCD    3584
        0x08001f20:    00000000    ....    DCD    0
        0x08001f24:    00000000    ....    DCD    0
        0x08001f28:    80000000    ....    DCD    2147483648
        0x08001f2c:    80008000    ....    DCD    2147516416
        0x08001f30:    80008000    ....    DCD    2147516416
        0x08001f34:    80008000    ....    DCD    2147516416
        0x08001f38:    0c000000    ....    DCD    201326592
        0x08001f3c:    00000c00    ....    DCD    3072
        0x08001f40:    00000000    ....    DCD    0
        0x08001f44:    00000000    ....    DCD    0
        0x08001f48:    06000000    ....    DCD    100663296
        0x08001f4c:    60001800    ...`    DCD    1610618880
        0x08001f50:    00068001    ....    DCD    425985
        0x08001f54:    00200018    .. .    DCD    2097176
        0x08001f58:    f0070000    ....    DCD    4026990592
        0x08001f5c:    04100808    ....    DCD    68159496
        0x08001f60:    08080410    ....    DCD    134743056
        0x08001f64:    0000f007    ....    DCD    61447
        0x08001f68:    04080000    ....    DCD    67633152
        0x08001f6c:    fc1f0408    ....    DCD    4229891080
        0x08001f70:    04000400    ....    DCD    67109888
        0x08001f74:    00000000    ....    DCD    0
        0x08001f78:    0c0e0000    ....    DCD    202244096
        0x08001f7c:    24101410    ...$    DCD    605033488
        0x08001f80:    84114410    .D..    DCD    2215724048
        0x08001f84:    00000c0e    ....    DCD    3086
        0x08001f88:    180c0000    ....    DCD    403439616
        0x08001f8c:    04110410    ....    DCD    68224016
        0x08001f90:    88120411    ....    DCD    2282882065
        0x08001f94:    0000700c    .p..    DCD    28684
        0x08001f98:    e0000000    ....    DCD    3758096384
        0x08001f9c:    24042003    . .$    DCD    604250115
        0x08001fa0:    fc1f2408    .$..    DCD    4229899272
        0x08001fa4:    00002400    .$..    DCD    9216
        0x08001fa8:    981f0000    ....    DCD    2552168448
        0x08001fac:    04118410    ....    DCD    68256784
        0x08001fb0:    88100411    ....    DCD    2282750993
        0x08001fb4:    00007010    .p..    DCD    28688
        0x08001fb8:    f0070000    ....    DCD    4026990592
        0x08001fbc:    04118808    ....    DCD    68257800
        0x08001fc0:    88180411    ....    DCD    2283275281
        0x08001fc4:    00007000    .p..    DCD    28672
        0x08001fc8:    001c0000    ....    DCD    1835008
        0x08001fcc:    fc100010    ....    DCD    4228907024
        0x08001fd0:    001c0013    ....    DCD    1835027
        0x08001fd4:    00000010    ....    DCD    16
        0x08001fd8:    380e0000    ...8    DCD    940441600
        0x08001fdc:    84104411    .D..    DCD    2215658513
        0x08001fe0:    44118410    ...D    DCD    1141998608
        0x08001fe4:    0000380e    .8..    DCD    14350
        0x08001fe8:    00070000    ....    DCD    458752
        0x08001fec:    44108c08    ...D    DCD    1141935112
        0x08001ff0:    88084410    .D..    DCD    2282243088
        0x08001ff4:    0000f007    ....    DCD    61447
        0x08001ff8:    00000000    ....    DCD    0
        0x08001ffc:    0c030000    ....    DCD    201523200
        0x08002000:    00000c03    ....    DCD    3075
        0x08002004:    00000000    ....    DCD    0
        0x08002008:    00000000    ....    DCD    0
        0x0800200c:    06010100    ....    DCD    100729088
        0x08002010:    00000000    ....    DCD    0
        0x08002014:    00000000    ....    DCD    0
        0x08002018:    80000000    ....    DCD    2147483648
        0x0800201c:    20024001    .@.     DCD    537018369
        0x08002020:    08081004    ....    DCD    134746116
        0x08002024:    00000410    ....    DCD    1040
        0x08002028:    20022002    . .     DCD    537010178
        0x0800202c:    20022002    . .     DCD    537010178
        0x08002030:    20022002    . .     DCD    537010178
        0x08002034:    00002002    . ..    DCD    8194
        0x08002038:    04100000    ....    DCD    68157440
        0x0800203c:    10040808    ....    DCD    268699656
        0x08002040:    40012002    . .@    DCD    1073815554
        0x08002044:    00008000    ....    DCD    32768
        0x08002048:    000e0000    ....    DCD    917504
        0x0800204c:    0c100012    ....    DCD    202375186
        0x08002050:    80106c10    .l..    DCD    2148559888
        0x08002054:    0000000f    ....    DCD    15
        0x08002058:    180ce003    ....    DCD    403496963
        0x0800205c:    2414e413    ...$    DCD    605348883
        0x08002060:    2808c417    ...(    DCD    671663127
        0x08002064:    0000d007    ....    DCD    53255
        0x08002068:    3c000400    ...<    DCD    1006633984
        0x0800206c:    401cc403    ...@    DCD    1075627011
        0x08002070:    e4004007    .@..    DCD    3825221639
        0x08002074:    04001c00    ....    DCD    67116032
        0x08002078:    fc1f0410    ....    DCD    4229891088
        0x0800207c:    04110411    ....    DCD    68224017
        0x08002080:    880e0411    ....    DCD    2282619921
        0x08002084:    00007000    .p..    DCD    28672
        0x08002088:    180ce003    ....    DCD    403496963
        0x0800208c:    04100410    ....    DCD    68158480
        0x08002090:    08100410    ....    DCD    135267344
        0x08002094:    0000101c    ....    DCD    4124
        0x08002098:    fc1f0410    ....    DCD    4229891088
        0x0800209c:    04100410    ....    DCD    68158480
        0x080020a0:    08080410    ....    DCD    134743056
        0x080020a4:    0000f007    ....    DCD    61447
        0x080020a8:    fc1f0410    ....    DCD    4229891088
        0x080020ac:    04110411    ....    DCD    68224017
        0x080020b0:    0410c417    ....    DCD    68207639
        0x080020b4:    00001808    ....    DCD    6152
        0x080020b8:    fc1f0410    ....    DCD    4229891088
        0x080020bc:    00110411    ....    DCD    1115153
        0x080020c0:    0010c017    ....    DCD    1097751
        0x080020c4:    00000008    ....    DCD    8
        0x080020c8:    180ce003    ....    DCD    403496963
        0x080020cc:    04100410    ....    DCD    68158480
        0x080020d0:    781c4410    .D.x    DCD    2015118352
        0x080020d4:    00004000    .@..    DCD    16384
        0x080020d8:    fc1f0410    ....    DCD    4229891088
        0x080020dc:    80008410    ....    DCD    2147517456
        0x080020e0:    84108000    ....    DCD    2215673856
        0x080020e4:    0410fc1f    ....    DCD    68221983
        0x080020e8:    04100000    ....    DCD    68157440
        0x080020ec:    fc1f0410    ....    DCD    4229891088
        0x080020f0:    04100410    ....    DCD    68158480
        0x080020f4:    00000000    ....    DCD    0
        0x080020f8:    01000300    ....    DCD    16777984
        0x080020fc:    01100110    ....    DCD    17826064
        0x08002100:    0010fe1f    ....    DCD    1113631
        0x08002104:    00000010    ....    DCD    16
        0x08002108:    fc1f0410    ....    DCD    4229891088
        0x0800210c:    80030411    ....    DCD    2147681297
        0x08002110:    1c186414    .d..    DCD    471360532
        0x08002114:    00000410    ....    DCD    1040
        0x08002118:    fc1f0410    ....    DCD    4229891088
        0x0800211c:    04000410    ....    DCD    67109904
        0x08002120:    04000400    ....    DCD    67109888
        0x08002124:    00000c00    ....    DCD    3072
        0x08002128:    fc1f0410    ....    DCD    4229891088
        0x0800212c:    fc00001f    ....    DCD    4227858463
        0x08002130:    fc1f001f    ....    DCD    4229890079
        0x08002134:    00000410    ....    DCD    1040
        0x08002138:    fc1f0410    ....    DCD    4229891088
        0x0800213c:    0003040c    ....    DCD    197644
        0x08002140:    1810e000    ....    DCD    403759104
        0x08002144:    0010fc1f    ....    DCD    1113119
        0x08002148:    0808f007    ....    DCD    134803463
        0x0800214c:    04100410    ....    DCD    68158480
        0x08002150:    08080410    ....    DCD    134743056
        0x08002154:    0000f007    ....    DCD    61447
        0x08002158:    fc1f0410    ....    DCD    4229891088
        0x0800215c:    80108410    ....    DCD    2148566032
        0x08002160:    80108010    ....    DCD    2148565008
        0x08002164:    0000000f    ....    DCD    15
        0x08002168:    1808f007    ....    DCD    403238919
        0x0800216c:    24102410    .$.$    DCD    605037584
        0x08002170:    0a081c10    ....    DCD    168303632
        0x08002174:    0000f207    ....    DCD    61959
        0x08002178:    fc1f0410    ....    DCD    4229891088
        0x0800217c:    00110411    ....    DCD    1115153
        0x08002180:    3011c011    ...0    DCD    806469649
        0x08002184:    04000c0e    ....    DCD    67111950
        0x08002188:    1c0e0000    ....    DCD    470679552
        0x0800218c:    84100411    ....    DCD    2215642129
        0x08002190:    44108410    ...D    DCD    1141933072
        0x08002194:    0000381c    .8..    DCD    14364
        0x08002198:    00100018    ....    DCD    1048600
        0x0800219c:    fc1f0410    ....    DCD    4229891088
        0x080021a0:    00100410    ....    DCD    1049616
        0x080021a4:    00000018    ....    DCD    24
        0x080021a8:    f81f0010    ....    DCD    4162781200
        0x080021ac:    04000410    ....    DCD    67109904
        0x080021b0:    04100400    ....    DCD    68158464
        0x080021b4:    0010f81f    ....    DCD    1112095
        0x080021b8:    001e0010    ....    DCD    1966096
        0x080021bc:    1c00e011    ....    DCD    469819409
        0x080021c0:    80137000    .p..    DCD    2148757504
        0x080021c4:    0010001c    ....    DCD    1048604
        0x080021c8:    3c10c01f    ...<    DCD    1007730719
        0x080021cc:    001fe000    ....    DCD    2088960
        0x080021d0:    3c10e000    ...<    DCD    1007738880
        0x080021d4:    0000c01f    ....    DCD    49183
        0x080021d8:    0c180410    ....    DCD    202900496
        0x080021dc:    c0013416    .4..    DCD    3221304342
        0x080021e0:    3416c001    ...4    DCD    873906177
        0x080021e4:    04100c18    ....    DCD    68160536
        0x080021e8:    001c0010    ....    DCD    1835024
        0x080021ec:    fc000413    ....    DCD    4227859475
        0x080021f0:    001c0413    ....    DCD    1836051
        0x080021f4:    00000010    ....    DCD    16
        0x080021f8:    1c100408    ....    DCD    470811656
        0x080021fc:    84106410    .d..    DCD    2215666704
        0x08002200:    041c0413    ....    DCD    68944915
        0x08002204:    00001810    ....    DCD    6160
        0x08002208:    00000000    ....    DCD    0
        0x0800220c:    fe7f0000    ....    DCD    4269735936
        0x08002210:    02400240    @.@.    DCD    37749312
        0x08002214:    00000240    @...    DCD    576
        0x08002218:    00300000    ..0.    DCD    3145728
        0x0800221c:    8003000c    ....    DCD    2147680268
        0x08002220:    1c006000    .`..    DCD    469786624
        0x08002224:    00000300    ....    DCD    768
        0x08002228:    02400000    ..@.    DCD    37748736
        0x0800222c:    02400240    @.@.    DCD    37749312
        0x08002230:    0000fe7f    ....    DCD    65151
        0x08002234:    00000000    ....    DCD    0
        0x08002238:    00000000    ....    DCD    0
        0x0800223c:    00400020     .@.    DCD    4194336
        0x08002240:    00400040    @.@.    DCD    4194368
        0x08002244:    00000020     ...    DCD    32
        0x08002248:    01000100    ....    DCD    16777472
        0x0800224c:    01000100    ....    DCD    16777472
        0x08002250:    01000100    ....    DCD    16777472
        0x08002254:    01000100    ....    DCD    16777472
        0x08002258:    00400000    ..@.    DCD    4194304
        0x0800225c:    00200040    @. .    DCD    2097216
        0x08002260:    00000000    ....    DCD    0
        0x08002264:    00000000    ....    DCD    0
        0x08002268:    98000000    ....    DCD    2550136832
        0x0800226c:    44012401    .$.D    DCD    1140925441
        0x08002270:    44014401    .D.D    DCD    1140933633
        0x08002274:    0400fc00    ....    DCD    67173376
        0x08002278:    fc1f0010    ....    DCD    4229890064
        0x0800227c:    04018800    ....    DCD    67209216
        0x08002280:    88000401    ....    DCD    2281702401
        0x08002284:    00007000    .p..    DCD    28672
        0x08002288:    70000000    ...p    DCD    1879048192
        0x0800228c:    04018800    ....    DCD    67209216
        0x08002290:    04010401    ....    DCD    67175425
        0x08002294:    00008800    ....    DCD    34816
        0x08002298:    70000000    ...p    DCD    1879048192
        0x0800229c:    04018800    ....    DCD    67209216
        0x080022a0:    08110401    ....    DCD    135332865
        0x080022a4:    0400fc1f    ....    DCD    67173407
        0x080022a8:    f8000000    ....    DCD    4160749568
        0x080022ac:    44014401    .D.D    DCD    1140933633
        0x080022b0:    44014401    .D.D    DCD    1140933633
        0x080022b4:    0000c800    ....    DCD    51200
        0x080022b8:    04010000    ....    DCD    67174400
        0x080022bc:    fc0f0401    ....    DCD    4228842497
        0x080022c0:    04110411    ....    DCD    68224017
        0x080022c4:    00180011    ....    DCD    1572881
        0x080022c8:    d6000000    ....    DCD    3590324224
        0x080022cc:    29012901    .).)    DCD    687941889
        0x080022d0:    c9012901    .)..    DCD    3372296449
        0x080022d4:    00000601    ....    DCD    1537
        0x080022d8:    fc1f0410    ....    DCD    4229891088
        0x080022dc:    00018400    ....    DCD    99328
        0x080022e0:    04010001    ....    DCD    67174401
        0x080022e4:    0400fc00    ....    DCD    67173376
        0x080022e8:    04010000    ....    DCD    67174400
        0x080022ec:    fc190419    ....    DCD    4229497881
        0x080022f0:    04000400    ....    DCD    67109888
        0x080022f4:    00000000    ....    DCD    0
        0x080022f8:    03000000    ....    DCD    50331648
        0x080022fc:    01010100    ....    DCD    16843008
        0x08002300:    fe190119    ....    DCD    4263051545
        0x08002304:    00000000    ....    DCD    0
        0x08002308:    fc1f0410    ....    DCD    4229891088
        0x0800230c:    40002400    .$.@    DCD    1073751040
        0x08002310:    0c01b401    ....    DCD    201438209
        0x08002314:    00000401    ....    DCD    1025
        0x08002318:    04100000    ....    DCD    68157440
        0x0800231c:    fc1f0410    ....    DCD    4229891088
        0x08002320:    04000400    ....    DCD    67109888
        0x08002324:    00000000    ....    DCD    0
        0x08002328:    fc010401    ....    DCD    4227924993
        0x0800232c:    00010401    ....    DCD    66561
        0x08002330:    0401fc01    ....    DCD    67238913
        0x08002334:    fc000001    ....    DCD    4227858433
        0x08002338:    fc010401    ....    DCD    4227924993
        0x0800233c:    00018400    ....    DCD    99328
        0x08002340:    04010001    ....    DCD    67174401
        0x08002344:    0400fc00    ....    DCD    67173376
        0x08002348:    f8000000    ....    DCD    4160749568
        0x0800234c:    04010401    ....    DCD    67175425
        0x08002350:    04010401    ....    DCD    67175425
        0x08002354:    0000f800    ....    DCD    63488
        0x08002358:    ff010101    ....    DCD    4278255873
        0x0800235c:    04018500    ....    DCD    67208448
        0x08002360:    88000401    ....    DCD    2281702401
        0x08002364:    00007000    .p..    DCD    28672
        0x08002368:    70000000    ...p    DCD    1879048192
        0x0800236c:    04018800    ....    DCD    67209216
        0x08002370:    05010401    ....    DCD    83952641
        0x08002374:    0100ff01    ....    DCD    16842497
        0x08002378:    04010401    ....    DCD    67175425
        0x0800237c:    8400fc01    ....    DCD    2214657025
        0x08002380:    00010401    ....    DCD    66561
        0x08002384:    00008001    ....    DCD    32769
        0x08002388:    cc000000    ....    DCD    3422552064
        0x0800238c:    24012401    .$.$    DCD    604054529
        0x08002390:    24012401    .$.$    DCD    604054529
        0x08002394:    00009801    ....    DCD    38913
        0x08002398:    00010000    ....    DCD    65536
        0x0800239c:    f8070001    ....    DCD    4161208321
        0x080023a0:    04010401    ....    DCD    67175425
        0x080023a4:    00000000    ....    DCD    0
        0x080023a8:    f8010001    ....    DCD    4160815105
        0x080023ac:    04000400    ....    DCD    67109888
        0x080023b0:    08010400    ....    DCD    134284288
        0x080023b4:    0400fc01    ....    DCD    67173377
        0x080023b8:    80010001    ....    DCD    2147549185
        0x080023bc:    0c007001    .p..    DCD    201355265
        0x080023c0:    60011000    ...`    DCD    1610682368
        0x080023c4:    00018001    ....    DCD    98305
        0x080023c8:    0c01f001    ....    DCD    201453569
        0x080023cc:    c0013000    .0..    DCD    3221303296
        0x080023d0:    0c013000    .0..    DCD    201404416
        0x080023d4:    0001f001    ....    DCD    126977
        0x080023d8:    04010000    ....    DCD    67174400
        0x080023dc:    74008c01    ...t    DCD    1946192897
        0x080023e0:    8c017001    .p..    DCD    2348904449
        0x080023e4:    00000401    ....    DCD    1025
        0x080023e8:    81010101    ....    DCD    2164326657
        0x080023ec:    0e007101    .q..    DCD    234909953
        0x080023f0:    60011800    ...`    DCD    1610684416
        0x080023f4:    00018001    ....    DCD    98305
        0x080023f8:    84010000    ....    DCD    2214658048
        0x080023fc:    34010c01    ...4    DCD    872483841
        0x08002400:    84014401    .D..    DCD    2214675457
        0x08002404:    00000c01    ....    DCD    3073
        0x08002408:    00000000    ....    DCD    0
        0x0800240c:    00000000    ....    DCD    0
        0x08002410:    fc3e0001    ..>.    DCD    4231921665
        0x08002414:    02400240    @.@.    DCD    37749312
        0x08002418:    00000000    ....    DCD    0
        0x0800241c:    00000000    ....    DCD    0
        0x08002420:    0000ffff    ....    DCD    65535
        0x08002424:    00000000    ....    DCD    0
        0x08002428:    02400000    ..@.    DCD    37748736
        0x0800242c:    fc3e0240    @.>.    DCD    4231922240
        0x08002430:    00000001    ....    DCD    1
        0x08002434:    00000000    ....    DCD    0
        0x08002438:    00600000    ..`.    DCD    6291456
        0x0800243c:    00800080    ....    DCD    8388736
        0x08002440:    00400040    @.@.    DCD    4194368
        0x08002444:    00200020     . .    DCD    2097184
    asc2_2412
        0x08002448:    00000000    ....    DCD    0
        0x0800244c:    00000000    ....    DCD    0
        0x08002450:    00000000    ....    DCD    0
        0x08002454:    00000000    ....    DCD    0
        0x08002458:    00000000    ....    DCD    0
        0x0800245c:    00000000    ....    DCD    0
        0x08002460:    00000000    ....    DCD    0
        0x08002464:    00000000    ....    DCD    0
        0x08002468:    00000000    ....    DCD    0
        0x0800246c:    00000000    ....    DCD    0
        0x08002470:    00000000    ....    DCD    0
        0x08002474:    00000000    ....    DCD    0
        0x08002478:    0f000000    ....    DCD    251658240
        0x0800247c:    fe0f3880    .8..    DCD    4262410368
        0x08002480:    38800f38    8..8    DCD    947916600
        0x08002484:    00000000    ....    DCD    0
        0x08002488:    00000000    ....    DCD    0
        0x0800248c:    00000000    ....    DCD    0
        0x08002490:    00000000    ....    DCD    0
        0x08002494:    00010000    ....    DCD    65536
        0x08002498:    00000600    ....    DCD    1536
        0x0800249c:    3800000c    ...8    DCD    939524108
        0x080024a0:    00310000    ..1.    DCD    3211264
        0x080024a4:    00000600    ....    DCD    1536
        0x080024a8:    3800000c    ...8    DCD    939524108
        0x080024ac:    00300000    ..0.    DCD    3145728
        0x080024b0:    00000000    ....    DCD    0
        0x080024b4:    00000000    ....    DCD    0
        0x080024b8:    67008061    a..g    DCD    1728086113
        0x080024bc:    80f907f8    ....    DCD    2163804152
        0x080024c0:    00806100    .a..    DCD    8413440
        0x080024c4:    61008061    a..a    DCD    1627422817
        0x080024c8:    80610080    ..a.    DCD    2153840768
        0x080024cc:    07f86700    .g..    DCD    133719808
        0x080024d0:    610080f9    ...a    DCD    1627422969
        0x080024d4:    00000080    ....    DCD    128
        0x080024d8:    00000000    ....    DCD    0
        0x080024dc:    c0010000    ....    DCD    3221291008
        0x080024e0:    f0e003e0    ....    DCD    4041212896
        0x080024e4:    04083006    .0..    DCD    67645446
        0x080024e8:    ff1f0818    ....    DCD    4280223768
        0x080024ec:    080e04fe    ....    DCD    135136510
        0x080024f0:    03f08707    ....    DCD    66094855
        0x080024f4:    0000e081    ....    DCD    57473
        0x080024f8:    00000000    ....    DCD    0
        0x080024fc:    0600f001    ....    DCD    100724737
        0x08002500:    0404000c    ....    DCD    67371020
        0x08002504:    700c0608    ...p    DCD    1879836168
        0x08002508:    00c0f901    ....    DCD    12646657
        0x0800250c:    3b00000e    ...;    DCD    989855758
        0x08002510:    18ec00e0    ....    DCD    418119904
        0x08002514:    04080807    ....    DCD    67635207
        0x08002518:    0300180c    ....    DCD    50337804
        0x0800251c:    000000e0    ....    DCD    224
        0x08002520:    00e00100    ....    DCD    14680320
        0x08002524:    f803f007    ....    DCD    4161007623
        0x08002528:    081c0418    ....    DCD    136053784
        0x0800252c:    07081704    ....    DCD    117970692
        0x08002530:    c003d0e1    ....    DCD    3221475553
        0x08002534:    b02300e0    ..#.    DCD    2955084000
        0x08002538:    00083c00    .<..    DCD    539648
        0x0800253c:    00000820     ...    DCD    2080
        0x08002540:    00000010    ....    DCD    16
        0x08002544:    01000000    ....    DCD    16777216
        0x08002548:    00310000    ..1.    DCD    3211264
        0x0800254c:    00003200    .2..    DCD    12800
        0x08002550:    0000001c    ....    DCD    28
        0x08002554:    00000000    ....    DCD    0
        0x08002558:    00000000    ....    DCD    0
        0x0800255c:    00000000    ....    DCD    0
        0x08002560:    00000000    ....    DCD    0
        0x08002564:    00000000    ....    DCD    0
        0x08002568:    00000000    ....    DCD    0
        0x0800256c:    00000000    ....    DCD    0
        0x08002570:    00000000    ....    DCD    0
        0x08002574:    00000000    ....    DCD    0
        0x08002578:    ff01007f    ....    DCD    4278255743
        0x0800257c:    f08007c0    ....    DCD    4034922432
        0x08002580:    1018000c    ....    DCD    270008332
        0x08002584:    00200400    .. .    DCD    2098176
        0x08002588:    00000002    ....    DCD    2
        0x0800258c:    20000000    ...     DCD    536870912
        0x08002590:    00100200    ....    DCD    1049088
        0x08002594:    18000c04    ....    DCD    402656260
        0x08002598:    01f08007    ....    DCD    32538631
        0x0800259c:    7f00c0ff    ....    DCD    2130755839
        0x080025a0:    00000000    ....    DCD    0
        0x080025a4:    00000000    ....    DCD    0
        0x080025a8:    00000000    ....    DCD    0
        0x080025ac:    00000000    ....    DCD    0
        0x080025b0:    00000000    ....    DCD    0
        0x080025b4:    66000042    B..f    DCD    1711276098
        0x080025b8:    00660000    ..f.    DCD    6684672
        0x080025bc:    00003c00    .<..    DCD    15360
        0x080025c0:    ff030018    ....    DCD    4278386712
        0x080025c4:    001800c0    ....    DCD    1573056
        0x080025c8:    00003c00    .<..    DCD    15360
        0x080025cc:    66000066    f..f    DCD    1711276134
        0x080025d0:    00420000    ..B.    DCD    4325376
        0x080025d4:    00000000    ....    DCD    0
        0x080025d8:    08000008    ....    DCD    134217736
        0x080025dc:    00080000    ....    DCD    524288
        0x080025e0:    00000800    ....    DCD    2048
        0x080025e4:    ff010008    ....    DCD    4278255624
        0x080025e8:    000800c0    ....    DCD    524480
        0x080025ec:    00000800    ....    DCD    2048
        0x080025f0:    08000008    ....    DCD    134217736
        0x080025f4:    00080000    ....    DCD    524288
        0x080025f8:    00000000    ....    DCD    0
        0x080025fc:    00000100    ....    DCD    256
        0x08002600:    32000031    1..2    DCD    838860849
        0x08002604:    001c0000    ....    DCD    1835008
        0x08002608:    00000000    ....    DCD    0
        0x0800260c:    00000000    ....    DCD    0
        0x08002610:    00000000    ....    DCD    0
        0x08002614:    00000000    ....    DCD    0
        0x08002618:    00000000    ....    DCD    0
        0x0800261c:    00000000    ....    DCD    0
        0x08002620:    08000008    ....    DCD    134217736
        0x08002624:    00080000    ....    DCD    524288
        0x08002628:    00000800    ....    DCD    2048
        0x0800262c:    08000008    ....    DCD    134217736
        0x08002630:    00080000    ....    DCD    524288
        0x08002634:    00000800    ....    DCD    2048
        0x08002638:    08000008    ....    DCD    134217736
        0x0800263c:    00000000    ....    DCD    0
        0x08002640:    00000000    ....    DCD    0
        0x08002644:    00000000    ....    DCD    0
        0x08002648:    38000038    8..8    DCD    939524152
        0x0800264c:    00380000    ..8.    DCD    3670016
        0x08002650:    00000000    ....    DCD    0
        0x08002654:    00000000    ....    DCD    0
        0x08002658:    00000000    ....    DCD    0
        0x0800265c:    00000000    ....    DCD    0
        0x08002660:    00000000    ....    DCD    0
        0x08002664:    00000000    ....    DCD    0
        0x08002668:    00000600    ....    DCD    1536
        0x0800266c:    7000001c    ...p    DCD    1879048220
        0x08002670:    00800100    ....    DCD    8388864
        0x08002674:    3800000e    ...8    DCD    939524110
        0x08002678:    00c00000    ....    DCD    12582912
        0x0800267c:    1c000007    ....    DCD    469762055
        0x08002680:    00300000    ..0.    DCD    3145728
        0x08002684:    00000000    ....    DCD    0
        0x08002688:    00000000    ....    DCD    0
        0x0800268c:    ff01807f    ....    DCD    4278288511
        0x08002690:    708003e0    ...p    DCD    1887437792
        0x08002694:    04180006    ....    DCD    68681734
        0x08002698:    00040800    ....    DCD    264192
        0x0800269c:    18000608    ....    DCD    402654728
        0x080026a0:    01708003    ..p.    DCD    24150019
        0x080026a4:    7f00e0ff    ....    DCD    2130764031
        0x080026a8:    00000080    ....    DCD    128
        0x080026ac:    00000000    ....    DCD    0
        0x080026b0:    00010000    ....    DCD    65536
        0x080026b4:    08000108    ....    DCD    134217992
        0x080026b8:    03080001    ....    DCD    50855937
        0x080026bc:    ff07f8ff    ....    DCD    4278712575
        0x080026c0:    080000f8    ....    DCD    134217976
        0x080026c4:    00080000    ....    DCD    524288
        0x080026c8:    00000800    ....    DCD    2048
        0x080026cc:    00000000    ....    DCD    0
        0x080026d0:    01000000    ....    DCD    16777216
        0x080026d4:    c00238c0    .8..    DCD    3221371072
        0x080026d8:    98000458    X...    DCD    2550137944
        0x080026dc:    04180104    ....    DCD    68681988
        0x080026e0:    04041802    ....    DCD    67377154
        0x080026e4:    181c0618    ....    DCD    404489752
        0x080026e8:    0118f803    ....    DCD    18413571
        0x080026ec:    0000f8e0    ....    DCD    63712
        0x080026f0:    00000000    ....    DCD    0
        0x080026f4:    01000000    ....    DCD    16777216
        0x080026f8:    c003e0c0    ....    DCD    3221479616
        0x080026fc:    080004f0    ....    DCD    134218992
        0x08002700:    04080804    ....    DCD    67635204
        0x08002704:    18060808    ....    DCD    403048456
        0x08002708:    18f40308    ....    DCD    418644744
        0x0800270c:    00f0e701    ....    DCD    15787777
        0x08002710:    0000e001    ....    DCD    57345
        0x08002714:    00000000    ....    DCD    0
        0x08002718:    00000000    ....    DCD    0
        0x0800271c:    0d000003    ....    DCD    218103811
        0x08002720:    00110000    ....    DCD    1114112
        0x08002724:    00006100    .a..    DCD    24832
        0x08002728:    01030881    ....    DCD    16976001
        0x0800272c:    f8ff0708    ....    DCD    4177463048
        0x08002730:    00f8ff0f    ....    DCD    16318223
        0x08002734:    01000801    ....    DCD    16779265
        0x08002738:    00000008    ....    DCD    8
        0x0800273c:    00000000    ....    DCD    0
        0x08002740:    fc07e000    ....    DCD    4228374528
        0x08002744:    080806d0    ....    DCD    134743760
        0x08002748:    06081006    ....    DCD    101191686
        0x0800274c:    10060810    ....    DCD    268830736
        0x08002750:    38180608    ...8    DCD    941098504
        0x08002754:    06f00f06    ....    DCD    116395782
        0x08002758:    0000c007    ....    DCD    49159
        0x0800275c:    00000000    ....    DCD    0
        0x08002760:    00000000    ....    DCD    0
        0x08002764:    ff01803f    ?...    DCD    4278288447
        0x08002768:    308403e0    ...0    DCD    813958112
        0x0800276c:    04180802    ....    DCD    68683778
        0x08002770:    10040810    ....    DCD    268699664
        0x08002774:    08100408    ....    DCD    135267336
        0x08002778:    03101807    ....    DCD    51386375
        0x0800277c:    0700f00f    ....    DCD    117501967
        0x08002780:    000000c0    ....    DCD    192
        0x08002784:    00000000    ....    DCD    0
        0x08002788:    c0030000    ....    DCD    3221422080
        0x0800278c:    00000700    ....    DCD    1792
        0x08002790:    06000006    ....    DCD    100663302
        0x08002794:    0706f800    ....    DCD    117897216
        0x08002798:    001806f8    ....    DCD    1574648
        0x0800279c:    0700e006    ....    DCD    117497862
        0x080027a0:    00060000    ....    DCD    393216
        0x080027a4:    00000000    ....    DCD    0
        0x080027a8:    01000000    ....    DCD    16777216
        0x080027ac:    f703e0e1    ....    DCD    4144226529
        0x080027b0:    103406f0    ..4.    DCD    271845104
        0x080027b4:    04081804    ....    DCD    67639300
        0x080027b8:    0c040818    ....    DCD    201590808
        0x080027bc:    080c0408    ....    DCD    135005192
        0x080027c0:    03181606    ....    DCD    51910150
        0x080027c4:    c101f0f3    ....    DCD    3238129907
        0x080027c8:    000000e0    ....    DCD    224
        0x080027cc:    00000000    ....    DCD    0
        0x080027d0:    fc0300f8    ....    DCD    4228055288
        0x080027d4:    38060330    0..8    DCD    939918128
        0x080027d8:    04080204    ....    DCD    67633668
        0x080027dc:    02040802    ....    DCD    33818626
        0x080027e0:    10040408    ....    DCD    268698632
        0x080027e4:    01f00803    ....    DCD    32507907
        0x080027e8:    7f00c0ff    ....    DCD    2130755839
        0x080027ec:    00000000    ....    DCD    0
        0x080027f0:    00000000    ....    DCD    0
        0x080027f4:    00000000    ....    DCD    0
        0x080027f8:    00000000    ....    DCD    0
        0x080027fc:    00000000    ....    DCD    0
        0x08002800:    70003870    p8.p    DCD    1879062640
        0x08002804:    38700038    8.p8    DCD    946864184
        0x08002808:    00000000    ....    DCD    0
        0x0800280c:    00000000    ....    DCD    0
        0x08002810:    00000000    ....    DCD    0
        0x08002814:    00000000    ....    DCD    0
        0x08002818:    00000000    ....    DCD    0
        0x0800281c:    00000000    ....    DCD    0
        0x08002820:    00000000    ....    DCD    0
        0x08002824:    30001a30    0..0    DCD    805313072
        0x08002828:    0000001c    ....    DCD    28
        0x0800282c:    00000000    ....    DCD    0
        0x08002830:    00000000    ....    DCD    0
        0x08002834:    00000000    ....    DCD    0
        0x08002838:    00000000    ....    DCD    0
        0x0800283c:    08000000    ....    DCD    134217728
        0x08002840:    00140000    ....    DCD    1310720
        0x08002844:    00002200    ."..    DCD    8704
        0x08002848:    80000041    A...    DCD    2147483713
        0x0800284c:    40000180    ...@    DCD    1073742208
        0x08002850:    04200002    .. .    DCD    69206018
        0x08002854:    00081000    ....    DCD    528384
        0x08002858:    00000008    ....    DCD    8
        0x0800285c:    00000000    ....    DCD    0
        0x08002860:    21000021    !..!    DCD    553648161
        0x08002864:    00210000    ..!.    DCD    2162688
        0x08002868:    00002100    .!..    DCD    8448
        0x0800286c:    21000021    !..!    DCD    553648161
        0x08002870:    00210000    ..!.    DCD    2162688
        0x08002874:    00002100    .!..    DCD    8448
        0x08002878:    21000021    !..!    DCD    553648161
        0x0800287c:    00000000    ....    DCD    0
        0x08002880:    00000000    ....    DCD    0
        0x08002884:    00080000    ....    DCD    524288
        0x08002888:    10000408    ....    DCD    268436488
        0x0800288c:    01200002    .. .    DCD    18874370
        0x08002890:    80004000    .@..    DCD    2147500032
        0x08002894:    00410080    ..A.    DCD    4259968
        0x08002898:    00002200    ."..    DCD    8704
        0x0800289c:    08000014    ....    DCD    134217748
        0x080028a0:    00000000    ....    DCD    0
        0x080028a4:    03000000    ....    DCD    50331648
        0x080028a8:    c00400c0    ....    DCD    3221487808
        0x080028ac:    00000400    ....    DCD    1024
        0x080028b0:    08380008    ..8.    DCD    137887752
        0x080028b4:    0808380f    .8..    DCD    134756367
        0x080028b8:    00100838    8...    DCD    1050680
        0x080028bc:    0700300c    .0..    DCD    117452812
        0x080028c0:    c00300e0    ....    DCD    3221422304
        0x080028c4:    00000000    ....    DCD    0
        0x080028c8:    00000000    ....    DCD    0
        0x080028cc:    ff00803f    ?...    DCD    4278222911
        0x080028d0:    708003e0    ...p    DCD    1887437792
        0x080028d4:    06100f02    ....    DCD    101715714
        0x080028d8:    c0048870    p...    DCD    3221522544
        0x080028dc:    08830488    ....    DCD    142804104
        0x080028e0:    02887f04    ....    DCD    42499844
        0x080028e4:    010390c0    ....    DCD    17010880
        0x080028e8:    40fe0020     ..@    DCD    1090388000
        0x080028ec:    00080000    ....    DCD    524288
        0x080028f0:    01001800    ....    DCD    16783360
        0x080028f4:    083e00f8    ..>.    DCD    138281208
        0x080028f8:    0700c201    ....    DCD    117490177
        0x080028fc:    e2070002    ....    DCD    3792109570
        0x08002900:    00fe0000    ....    DCD    16646144
        0x08002904:    00c81f00    ....    DCD    13115136
        0x08002908:    0000f801    ....    DCD    63489
        0x0800290c:    08000038    8...    DCD    134217784
        0x08002910:    07080004    ....    DCD    117964804
        0x08002914:    ff07f8ff    ....    DCD    4278712575
        0x08002918:    080804f8    ....    DCD    134743288
        0x0800291c:    04080804    ....    DCD    67635204
        0x08002920:    08040808    ....    DCD    134481928
        0x08002924:    08180608    ....    DCD    135792136
        0x08002928:    0118f403    ....    DCD    18412547
        0x0800292c:    0100f0e7    ....    DCD    16838887
        0x08002930:    000000e0    ....    DCD    224
        0x08002934:    00000000    ....    DCD    0
        0x08002938:    ff01803f    ?...    DCD    4278288447
        0x0800293c:    708003e0    ...p    DCD    1887437792
        0x08002940:    04180002    ....    DCD    68681730
        0x08002944:    00040800    ....    DCD    264192
        0x08002948:    08000408    ....    DCD    134218760
        0x0800294c:    06100004    ....    DCD    101711876
        0x08002950:    80072000    . ..    DCD    2147950592
        0x08002954:    000000c0    ....    DCD    192
        0x08002958:    07080004    ....    DCD    117964804
        0x0800295c:    ff07f8ff    ....    DCD    4278712575
        0x08002960:    080004f8    ....    DCD    134219000
        0x08002964:    04080004    ....    DCD    67633156
        0x08002968:    00040800    ....    DCD    264192
        0x0800296c:    10000218    ....    DCD    268435992
        0x08002970:    01708003    ..p.    DCD    24150019
        0x08002974:    7f00e0ff    ....    DCD    2130764031
        0x08002978:    00000080    ....    DCD    128
        0x0800297c:    07080004    ....    DCD    117964804
        0x08002980:    ff07f8ff    ....    DCD    4278712575
        0x08002984:    080804f8    ....    DCD    134743288
        0x08002988:    04080804    ....    DCD    67635204
        0x0800298c:    08040808    ....    DCD    134481928
        0x08002990:    083e0408    ..>.    DCD    138281992
        0x08002994:    06080004    ....    DCD    101187588
        0x08002998:    00011800    ....    DCD    71680
        0x0800299c:    00000060    `...    DCD    96
        0x080029a0:    07080004    ....    DCD    117964804
        0x080029a4:    ff07f8ff    ....    DCD    4278712575
        0x080029a8:    080804f8    ....    DCD    134743288
        0x080029ac:    04000804    ....    DCD    67110916
        0x080029b0:    08040008    ....    DCD    134479880
        0x080029b4:    003e0400    ..>.    DCD    4064256
        0x080029b8:    06000006    ....    DCD    100663302
        0x080029bc:    80010000    ....    DCD    2147549184
        0x080029c0:    00000000    ....    DCD    0
        0x080029c4:    00000000    ....    DCD    0
        0x080029c8:    ff01803f    ?...    DCD    4278288447
        0x080029cc:    708003e0    ...p    DCD    1887437792
        0x080029d0:    04180006    ....    DCD    68681734
        0x080029d4:    02040800    ....    DCD    33818624
        0x080029d8:    08020408    ....    DCD    134349832
        0x080029dc:    07f00302    ....    DCD    133169922
        0x080029e0:    0200f083    ....    DCD    33616003
        0x080029e4:    00020000    ....    DCD    131072
        0x080029e8:    07080004    ....    DCD    117964804
        0x080029ec:    ff07f8ff    ....    DCD    4278712575
        0x080029f0:    080804f8    ....    DCD    134743288
        0x080029f4:    00000800    ....    DCD    2048
        0x080029f8:    08000008    ....    DCD    134217736
        0x080029fc:    00080000    ....    DCD    524288
        0x08002a00:    07080804    ....    DCD    117966852
        0x08002a04:    ff07f8ff    ....    DCD    4278712575
        0x08002a08:    080004f8    ....    DCD    134219000
        0x08002a0c:    00000000    ....    DCD    0
        0x08002a10:    00040000    ....    DCD    262144
        0x08002a14:    08000408    ....    DCD    134218760
        0x08002a18:    07080004    ....    DCD    117964804
        0x08002a1c:    ff07f8ff    ....    DCD    4278712575
        0x08002a20:    080004f8    ....    DCD    134219000
        0x08002a24:    04080004    ....    DCD    67633156
        0x08002a28:    00000800    ....    DCD    2048
        0x08002a2c:    00000000    ....    DCD    0
        0x08002a30:    00000000    ....    DCD    0
        0x08002a34:    00000600    ....    DCD    1536
        0x08002a38:    01000007    ....    DCD    16777223
        0x08002a3c:    04010004    ....    DCD    67174404
        0x08002a40:    00040100    ....    DCD    262400
        0x08002a44:    feff0703    ....    DCD    4278126339
        0x08002a48:    04fcff07    ....    DCD    83689223
        0x08002a4c:    00040000    ....    DCD    262144
        0x08002a50:    00000400    ....    DCD    1024
        0x08002a54:    07080004    ....    DCD    117964804
        0x08002a58:    ff07f8ff    ....    DCD    4278712575
        0x08002a5c:    080c04f8    ....    DCD    135005432
        0x08002a60:    00001800    ....    DCD    6144
        0x08002a64:    c704003e    >...    DCD    3338928190
        0x08002a68:    c8030580    ....    DCD    3355641216
        0x08002a6c:    04f80006    ....    DCD    83361798
        0x08002a70:    00043800    .8..    DCD    276480
        0x08002a74:    08000018    ....    DCD    134217752
        0x08002a78:    07080004    ....    DCD    117964804
        0x08002a7c:    ff07f8ff    ....    DCD    4278712575
        0x08002a80:    080004f8    ....    DCD    134219000
        0x08002a84:    00080000    ....    DCD    524288
        0x08002a88:    00000800    ....    DCD    2048
        0x08002a8c:    08000008    ....    DCD    134217736
        0x08002a90:    00080000    ....    DCD    524288
        0x08002a94:    00001800    ....    DCD    6144
        0x08002a98:    00000060    `...    DCD    96
        0x08002a9c:    07080004    ....    DCD    117964804
        0x08002aa0:    8007f8ff    ....    DCD    2148006143
        0x08002aa4:    00fc0708    ....    DCD    16516872
        0x08002aa8:    00c07f00    ....    DCD    12615424
        0x08002aac:    0700f803    ....    DCD    117504003
        0x08002ab0:    007800c0    ..x.    DCD    7864512
        0x08002ab4:    07088007    ....    DCD    117997575
        0x08002ab8:    ff07f8ff    ....    DCD    4278712575
        0x08002abc:    080004f8    ....    DCD    134219000
        0x08002ac0:    07080004    ....    DCD    117964804
        0x08002ac4:    0007f8ff    ....    DCD    522495
        0x08002ac8:    00c00308    ....    DCD    12583688
        0x08002acc:    0000e000    ....    DCD    57344
        0x08002ad0:    1e000038    8...    DCD    503316536
        0x08002ad4:    00070000    ....    DCD    458752
        0x08002ad8:    04c00100    ....    DCD    79692032
        0x08002adc:    ff07f000    ....    DCD    4278710272
        0x08002ae0:    000004f8    ....    DCD    1272
        0x08002ae4:    00000000    ....    DCD    0
        0x08002ae8:    ff01807f    ....    DCD    4278288511
        0x08002aec:    708003e0    ...p    DCD    1887437792
        0x08002af0:    04180006    ....    DCD    68681734
        0x08002af4:    00040800    ....    DCD    264192
        0x08002af8:    18000608    ....    DCD    402654728
        0x08002afc:    01300003    ..0.    DCD    19922947
        0x08002b00:    7f00e0ff    ....    DCD    2130764031
        0x08002b04:    00000080    ....    DCD    128
        0x08002b08:    07080004    ....    DCD    117964804
        0x08002b0c:    ff07f8ff    ....    DCD    4278712575
        0x08002b10:    080404f8    ....    DCD    134481144
        0x08002b14:    04000404    ....    DCD    67109892
        0x08002b18:    04040004    ....    DCD    67371012
        0x08002b1c:    00040400    ....    DCD    263168
        0x08002b20:    03000c06    ....    DCD    50334726
        0x08002b24:    f00100f8    ....    DCD    4026597624
        0x08002b28:    00000000    ....    DCD    0
        0x08002b2c:    00000000    ....    DCD    0
        0x08002b30:    ff01807f    ....    DCD    4278288511
        0x08002b34:    708003e0    ...p    DCD    1887437792
        0x08002b38:    04880006    ....    DCD    76021766
        0x08002b3c:    00048800    ....    DCD    296960
        0x08002b40:    3c0006c8    ...<    DCD    1006634696
        0x08002b44:    013e0003    ..>.    DCD    20840451
        0x08002b48:    7f00e6ff    ....    DCD    2130765567
        0x08002b4c:    00000084    ....    DCD    132
        0x08002b50:    07080004    ....    DCD    117964804
        0x08002b54:    ff07f8ff    ....    DCD    4278712575
        0x08002b58:    080804f8    ....    DCD    134743288
        0x08002b5c:    04000804    ....    DCD    67110916
        0x08002b60:    0f04000c    ....    DCD    251920396
        0x08002b64:    c00b0400    ....    DCD    3221947392
        0x08002b68:    03f01006    ....    DCD    66064390
        0x08002b6c:    e00138f0    .8..    DCD    3758176496
        0x08002b70:    08000008    ....    DCD    134217736
        0x08002b74:    01000000    ....    DCD    16777216
        0x08002b78:    f003f8e0    ....    DCD    4026792160
        0x08002b7c:    10300630    0.0.    DCD    271582768
        0x08002b80:    04081804    ....    DCD    67639300
        0x08002b84:    0c040818    ....    DCD    201590808
        0x08002b88:    080c0408    ....    DCD    135005192
        0x08002b8c:    02180602    ....    DCD    35128834
        0x08002b90:    8107f007    ....    DCD    2164781063
        0x08002b94:    000000e0    ....    DCD    224
        0x08002b98:    06008001    ....    DCD    100696065
        0x08002b9c:    00040000    ....    DCD    262144
        0x08002ba0:    00000400    ....    DCD    1024
        0x08002ba4:    07080004    ....    DCD    117964804
        0x08002ba8:    ff07f8ff    ....    DCD    4278712575
        0x08002bac:    080004f8    ....    DCD    134219000
        0x08002bb0:    04000004    ....    DCD    67108868
        0x08002bb4:    00060000    ....    DCD    393216
        0x08002bb8:    00800100    ....    DCD    8388864
        0x08002bbc:    07000004    ....    DCD    117440516
        0x08002bc0:    ff07e0ff    ....    DCD    4278706431
        0x08002bc4:    180004f0    ....    DCD    402654448
        0x08002bc8:    00080000    ....    DCD    524288
        0x08002bcc:    00000800    ....    DCD    2048
        0x08002bd0:    08000008    ....    DCD    134217736
        0x08002bd4:    04080000    ....    DCD    67633152
        0x08002bd8:    ff071000    ....    DCD    4278652928
        0x08002bdc:    000004e0    ....    DCD    1248
        0x08002be0:    06000004    ....    DCD    100663300
        0x08002be4:    e0070000    ....    DCD    3758555136
        0x08002be8:    00fe0700    ....    DCD    16647936
        0x08002bec:    00e01f04    ....    DCD    14688004
        0x08002bf0:    0000f801    ....    DCD    63489
        0x08002bf4:    e0010038    8...    DCD    3758161976
        0x08002bf8:    07003e04    .>..    DCD    117456388
        0x08002bfc:    000600c0    ....    DCD    393408
        0x08002c00:    00000400    ....    DCD    1024
        0x08002c04:    07000004    ....    DCD    117440516
        0x08002c08:    ff0700e0    ....    DCD    4278649056
        0x08002c0c:    f81f04c0    ....    DCD    4162782400
        0x08002c10:    07c00700    ....    DCD    130025216
        0x08002c14:    ff0700f8    ....    DCD    4278649080
        0x08002c18:    f83f0480    ..?.    DCD    4164879488
        0x08002c1c:    04c00700    ....    DCD    79693568
        0x08002c20:    000700f8    ....    DCD    459000
        0x08002c24:    00000400    ....    DCD    1024
        0x08002c28:    04000000    ....    DCD    67108864
        0x08002c2c:    00060800    ....    DCD    395264
        0x08002c30:    78c00718    ...x    DCD    2025850648
        0x08002c34:    00c8f105    ....    DCD    13168901
        0x08002c38:    1f00003e    >...    DCD    520093758
        0x08002c3c:    e8630480    ..c.    DCD    3898803328
        0x08002c40:    06f88007    ....    DCD    116948999
        0x08002c44:    00041800    ....    DCD    268288
        0x08002c48:    00000008    ....    DCD    8
        0x08002c4c:    06000004    ....    DCD    100663300
        0x08002c50:    80070000    ....    DCD    2147942400
        0x08002c54:    08e00700    ....    DCD    148899584
        0x08002c58:    00087c04    .|..    DCD    556036
        0x08002c5c:    0700f81f    ....    DCD    117504031
        0x08002c60:    081800f8    ....    DCD    135790840
        0x08002c64:    0708e004    ....    DCD    118022148
        0x08002c68:    00060000    ....    DCD    393216
        0x08002c6c:    00000400    ....    DCD    1024
        0x08002c70:    01000000    ....    DCD    16777216
        0x08002c74:    00060800    ....    DCD    395264
        0x08002c78:    f8000438    8...    DCD    4160750648
        0x08002c7c:    04e80304    ....    DCD    82313988
        0x08002c80:    7c04080f    ...|    DCD    2080638991
        0x08002c84:    08f00508    ....    DCD    149947656
        0x08002c88:    0708c007    ....    DCD    118013959
        0x08002c8c:    00041800    ....    DCD    268288
        0x08002c90:    00000060    `...    DCD    96
        0x08002c94:    00000000    ....    DCD    0
        0x08002c98:    00000000    ....    DCD    0
        0x08002c9c:    00000000    ....    DCD    0
        0x08002ca0:    3f000000    ...?    DCD    1056964608
        0x08002ca4:    0020feff    .. .    DCD    2162431
        0x08002ca8:    02002002    . ..    DCD    33562626
        0x08002cac:    20020020     ..     DCD    537002016
        0x08002cb0:    00200200    .. .    DCD    2097664
        0x08002cb4:    00000002    ....    DCD    2
        0x08002cb8:    00000000    ....    DCD    0
        0x08002cbc:    00080000    ....    DCD    524288
        0x08002cc0:    00000700    ....    DCD    1792
        0x08002cc4:    0000c000    ....    DCD    49152
        0x08002cc8:    06000038    8...    DCD    100663352
        0x08002ccc:    c0010000    ....    DCD    3221291008
        0x08002cd0:    00300000    ..0.    DCD    3145728
        0x08002cd4:    00000e00    ....    DCD    3584
        0x08002cd8:    00000001    ....    DCD    1
        0x08002cdc:    00000000    ....    DCD    0
        0x08002ce0:    00200000    .. .    DCD    2097152
        0x08002ce4:    02002002    . ..    DCD    33562626
        0x08002ce8:    20020020     ..     DCD    537002016
        0x08002cec:    00200200    .. .    DCD    2097664
        0x08002cf0:    feff3f02    .?..    DCD    4278140674
        0x08002cf4:    00000000    ....    DCD    0
        0x08002cf8:    00000000    ....    DCD    0
        0x08002cfc:    00000000    ....    DCD    0
        0x08002d00:    00000000    ....    DCD    0
        0x08002d04:    00000000    ....    DCD    0
        0x08002d08:    00000800    ....    DCD    2048
        0x08002d0c:    30000010    ...0    DCD    805306384
        0x08002d10:    00200000    .. .    DCD    2097152
        0x08002d14:    00003000    .0..    DCD    12288
        0x08002d18:    08000010    ....    DCD    134217744
        0x08002d1c:    00000000    ....    DCD    0
        0x08002d20:    00000000    ....    DCD    0
        0x08002d24:    00010000    ....    DCD    65536
        0x08002d28:    00000100    ....    DCD    256
        0x08002d2c:    01000001    ....    DCD    16777217
        0x08002d30:    00010000    ....    DCD    65536
        0x08002d34:    00000100    ....    DCD    256
        0x08002d38:    01000001    ....    DCD    16777217
        0x08002d3c:    00010000    ....    DCD    65536
        0x08002d40:    00000100    ....    DCD    256
        0x08002d44:    01000001    ....    DCD    16777217
        0x08002d48:    00000000    ....    DCD    0
        0x08002d4c:    00000000    ....    DCD    0
        0x08002d50:    00002000    . ..    DCD    8192
        0x08002d54:    10000020     ...    DCD    268435488
        0x08002d58:    00100000    ....    DCD    1048576
        0x08002d5c:    00000000    ....    DCD    0
        0x08002d60:    00000000    ....    DCD    0
        0x08002d64:    00000000    ....    DCD    0
        0x08002d68:    00000000    ....    DCD    0
        0x08002d6c:    00000000    ....    DCD    0
        0x08002d70:    1900f000    ....    DCD    419491840
        0x08002d74:    181b00f8    ....    DCD    404422904
        0x08002d78:    00082200    ."..    DCD    532992
        0x08002d7c:    24000826    &..$    DCD    603981862
        0x08002d80:    10240008    ..$.    DCD    270794760
        0x08002d84:    00f83f00    .?..    DCD    16269056
        0x08002d88:    0000f81f    ....    DCD    63519
        0x08002d8c:    18000008    ....    DCD    402653192
        0x08002d90:    04000000    ....    DCD    67108864
        0x08002d94:    ff070000    ....    DCD    4278648832
        0x08002d98:    f0ff0ff8    ....    DCD    4043247608
        0x08002d9c:    00181800    ....    DCD    1579008
        0x08002da0:    20000810    ...     DCD    536872976
        0x08002da4:    08200008    .. .    DCD    136314888
        0x08002da8:    00183000    .0..    DCD    1585152
        0x08002dac:    0f00f01f    ....    DCD    251719711
        0x08002db0:    000000c0    ....    DCD    192
        0x08002db4:    00000000    ....    DCD    0
        0x08002db8:    1f00c007    ....    DCD    520142855
        0x08002dbc:    301800f0    ...0    DCD    806879472
        0x08002dc0:    00082000    . ..    DCD    532480
        0x08002dc4:    20000820     ..     DCD    536872992
        0x08002dc8:    083c0008    ..<.    DCD    138149896
        0x08002dcc:    00101c00    ....    DCD    1055744
        0x08002dd0:    00006000    .`..    DCD    24576
        0x08002dd4:    00000000    ....    DCD    0
        0x08002dd8:    00000000    ....    DCD    0
        0x08002ddc:    1f00c007    ....    DCD    520142855
        0x08002de0:    183800f0    ..8.    DCD    406323440
        0x08002de4:    00082000    . ..    DCD    532480
        0x08002de8:    20000820     ..     DCD    536872992
        0x08002dec:    10100408    ....    DCD    269485064
        0x08002df0:    0ff8ff07    ....    DCD    267976455
        0x08002df4:    0000f0ff    ....    DCD    61695
        0x08002df8:    00000010    ....    DCD    16
        0x08002dfc:    00000000    ....    DCD    0
        0x08002e00:    07000000    ....    DCD    117440512
        0x08002e04:    f01f00c0    ....    DCD    4028563648
        0x08002e08:    00301200    ..0.    DCD    3150336
        0x08002e0c:    22001822    ".."    DCD    570431522
        0x08002e10:    08220008    ..".    DCD    136445960
        0x08002e14:    00083200    .2..    DCD    537088
        0x08002e18:    0e00101e    ....    DCD    234885150
        0x08002e1c:    00000020     ...    DCD    32
        0x08002e20:    00000000    ....    DCD    0
        0x08002e24:    20000020     ..     DCD    536870944
        0x08002e28:    08200008    .. .    DCD    136314888
        0x08002e2c:    03f8ff01    ....    DCD    66649857
        0x08002e30:    2006f8ff    ...     DCD    537327871
        0x08002e34:    08200408    .. .    DCD    136315912
        0x08002e38:    07082004    . ..    DCD    117972996
        0x08002e3c:    00030020     ...    DCD    196640
        0x08002e40:    00000000    ....    DCD    0
        0x08002e44:    00000000    ....    DCD    0
        0x08002e48:    0e000e00    ....    DCD    234884608
        0x08002e4c:    f31f006e    n...    DCD    4078895214
        0x08002e50:    00b13100    .1..    DCD    11612416
        0x08002e54:    2000b120     ..     DCD    536916256
        0x08002e58:    913100b1    ..1.    DCD    2435907761
        0x08002e5c:    00131f00    ....    DCD    1253120
        0x08002e60:    20001e2e    ...     DCD    536878638
        0x08002e64:    0030000e    ..0.    DCD    3145742
        0x08002e68:    04000000    ....    DCD    67108864
        0x08002e6c:    ff070800    ....    DCD    4278650880
        0x08002e70:    f8ff0ff8    ....    DCD    4177465336
        0x08002e74:    00081000    ....    DCD    528384
        0x08002e78:    20000020     ..     DCD    536870944
        0x08002e7c:    08200000    .. .    DCD    136314880
        0x08002e80:    00f83f00    .?..    DCD    16269056
        0x08002e84:    0000f81f    ....    DCD    63519
        0x08002e88:    00000008    ....    DCD    8
        0x08002e8c:    00000000    ....    DCD    0
        0x08002e90:    20000000    ...     DCD    536870912
        0x08002e94:    08200008    .. .    DCD    136314888
        0x08002e98:    06082000    . ..    DCD    101195776
        0x08002e9c:    3f06f83f    ?..?    DCD    1057421375
        0x08002ea0:    080000f8    ....    DCD    134217976
        0x08002ea4:    00080000    ....    DCD    524288
        0x08002ea8:    00000800    ....    DCD    2048
        0x08002eac:    00000000    ....    DCD    0
        0x08002eb0:    00000000    ....    DCD    0
        0x08002eb4:    00000000    ....    DCD    0
        0x08002eb8:    03000003    ....    DCD    50331651
        0x08002ebc:    00012000    . ..    DCD    73728
        0x08002ec0:    20000120     ..     DCD    536871200
        0x08002ec4:    fe3f0603    ..?.    DCD    4265543171
        0x08002ec8:    00fc3f06    .?..    DCD    16531206
        0x08002ecc:    00000000    ....    DCD    0
        0x08002ed0:    00000000    ....    DCD    0
        0x08002ed4:    04000000    ....    DCD    67108864
        0x08002ed8:    ff070800    ....    DCD    4278650880
        0x08002edc:    f8ff0ff8    ....    DCD    4177465336
        0x08002ee0:    00880100    ....    DCD    8913152
        0x08002ee4:    2f000003    .../    DCD    788529155
        0x08002ee8:    f83800c0    ..8.    DCD    4164419776
        0x08002eec:    00382000    . 8.    DCD    3678208
        0x08002ef0:    00000820     ...    DCD    2080
        0x08002ef4:    00000008    ....    DCD    8
        0x08002ef8:    00000000    ....    DCD    0
        0x08002efc:    00040000    ....    DCD    262144
        0x08002f00:    08000408    ....    DCD    134218760
        0x08002f04:    07080004    ....    DCD    117964804
        0x08002f08:    ff0ff8ff    ....    DCD    4279236863
        0x08002f0c:    080000f8    ....    DCD    134217976
        0x08002f10:    00080000    ....    DCD    524288
        0x08002f14:    00000800    ....    DCD    2048
        0x08002f18:    00000000    ....    DCD    0
        0x08002f1c:    00082000    . ..    DCD    532480
        0x08002f20:    3f00f83f    ?..?    DCD    1057028159
        0x08002f24:    081000f8    ....    DCD    135266552
        0x08002f28:    00002000    . ..    DCD    8192
        0x08002f2c:    3f00f83f    ?..?    DCD    1057028159
        0x08002f30:    081000f8    ....    DCD    135266552
        0x08002f34:    00002000    . ..    DCD    8192
        0x08002f38:    3f00f83f    ?..?    DCD    1057028159
        0x08002f3c:    080000f8    ....    DCD    134217976
        0x08002f40:    00000000    ....    DCD    0
        0x08002f44:    3f000820     ..?    DCD    1056966688
        0x08002f48:    f83f00f8    ..?.    DCD    4164878584
        0x08002f4c:    00081000    ....    DCD    528384
        0x08002f50:    20000010    ...     DCD    536870928
        0x08002f54:    08200000    .. .    DCD    136314880
        0x08002f58:    00f83f00    .?..    DCD    16269056
        0x08002f5c:    0000f81f    ....    DCD    63519
        0x08002f60:    00000008    ....    DCD    8
        0x08002f64:    00000000    ....    DCD    0
        0x08002f68:    0f00c007    ....    DCD    251707399
        0x08002f6c:    301800f0    ...0    DCD    806879472
        0x08002f70:    00083000    .0..    DCD    536576
        0x08002f74:    20000820     ..     DCD    536872992
        0x08002f78:    08300008    ..0.    DCD    137363464
        0x08002f7c:    00301800    ..0.    DCD    3151872
        0x08002f80:    0700f00f    ....    DCD    117501967
        0x08002f84:    000000c0    ....    DCD    192
        0x08002f88:    00000000    ....    DCD    0
        0x08002f8c:    3f000120     ..?    DCD    1056964896
        0x08002f90:    ff3f00ff    ..?.    DCD    4282319103
        0x08002f94:    00111000    ....    DCD    1118208
        0x08002f98:    20000920     ..     DCD    536873248
        0x08002f9c:    08200008    .. .    DCD    136314888
        0x08002fa0:    00383000    .08.    DCD    3682304
        0x08002fa4:    0f00f01f    ....    DCD    251719711
        0x08002fa8:    000000c0    ....    DCD    192
        0x08002fac:    00000000    ....    DCD    0
        0x08002fb0:    1f00c007    ....    DCD    520142855
        0x08002fb4:    183800f0    ..8.    DCD    406323440
        0x08002fb8:    00082000    . ..    DCD    532480
        0x08002fbc:    20000820     ..     DCD    536872992
        0x08002fc0:    11100009    ....    DCD    286261257
        0x08002fc4:    00ff1f00    ....    DCD    16719616
        0x08002fc8:    0000ff3f    ?...    DCD    65343
        0x08002fcc:    00000001    ....    DCD    1
        0x08002fd0:    00082000    . ..    DCD    532480
        0x08002fd4:    20000820     ..     DCD    536872992
        0x08002fd8:    f83f0008    ..?.    DCD    4164878344
        0x08002fdc:    00f83f00    .?..    DCD    16269056
        0x08002fe0:    10000808    ....    DCD    268437512
        0x08002fe4:    08200008    .. .    DCD    136314888
        0x08002fe8:    00002000    . ..    DCD    8192
        0x08002fec:    30000030    0..0    DCD    805306416
        0x08002ff0:    00000000    ....    DCD    0
        0x08002ff4:    00000000    ....    DCD    0
        0x08002ff8:    0c000000    ....    DCD    201326592
        0x08002ffc:    181e0078    x...    DCD    404619384
        0x08003000:    00083300    .3..    DCD    537344
        0x08003004:    21000823    #..!    DCD    553650211
        0x08003008:    88210008    ..!.    DCD    2283864072
        0x0800300c:    00982100    .!..    DCD    9969920
        0x08003010:    3800f030    0..8    DCD    939585584
        0x08003014:    00000060    `...    DCD    96
        0x08003018:    00000000    ....    DCD    0
        0x0800301c:    20000020     ..     DCD    536870944
        0x08003020:    00200000    .. .    DCD    2097152
        0x08003024:    03f0ff00    ....    DCD    66125568
        0x08003028:    2000f8ff    ...     DCD    536934655
        0x0800302c:    08200008    .. .    DCD    136314888
        0x08003030:    00082000    . ..    DCD    532480
        0x08003034:    00003000    .0..    DCD    12288
        0x08003038:    00000000    ....    DCD    0
        0x0800303c:    00000000    ....    DCD    0
        0x08003040:    3f000020     ..?    DCD    1056964640
        0x08003044:    f87f00f0    ....    DCD    4169072880
        0x08003048:    00180000    ....    DCD    1572864
        0x0800304c:    00000800    ....    DCD    2048
        0x08003050:    10200008    .. .    DCD    270532616
        0x08003054:    00f83f00    .?..    DCD    16269056
        0x08003058:    0000f07f    ....    DCD    61567
        0x0800305c:    00000010    ....    DCD    16
        0x08003060:    00000000    ....    DCD    0
        0x08003064:    30000020     ..0    DCD    805306400
        0x08003068:    003c0000    ..<.    DCD    3932160
        0x0800306c:    00803f00    .?..    DCD    8404736
        0x08003070:    0000f023    #...    DCD    61475
        0x08003074:    70000078    x..p    DCD    1879048312
        0x08003078:    00802300    .#..    DCD    8397568
        0x0800307c:    3000003c    <..0    DCD    805306428
        0x08003080:    00200000    .. .    DCD    2097152
        0x08003084:    00002000    . ..    DCD    8192
        0x08003088:    3f00003c    <..?    DCD    1056964668
        0x0800308c:    f82300e0    ..#.    DCD    4163043552
        0x08003090:    00e00000    ....    DCD    14680064
        0x08003094:    3e000027    '..>    DCD    1040187431
        0x08003098:    e03f0000    ..?.    DCD    3762225152
        0x0800309c:    00f82100    .!..    DCD    16261376
        0x080030a0:    3e00e001    ...>    DCD    1040244737
        0x080030a4:    00200000    .. .    DCD    2097152
        0x080030a8:    00000000    ....    DCD    0
        0x080030ac:    20000820     ..     DCD    536872992
        0x080030b0:    38380008    ..88    DCD    943194120
        0x080030b4:    00683e00    .>h.    DCD    6831616
        0x080030b8:    03008027    '...    DCD    50364455
        0x080030bc:    f82c00c8    ..,.    DCD    4163633352
        0x080030c0:    00383800    .88.    DCD    3684352
        0x080030c4:    20001820     ..     DCD    536877088
        0x080030c8:    00000008    ....    DCD    8
        0x080030cc:    00000000    ....    DCD    0
        0x080030d0:    30000020     ..0    DCD    805306400
        0x080030d4:    013c0003    ..<.    DCD    20709379
        0x080030d8:    00833f00    .?..    DCD    8601344
        0x080030dc:    0000ec23    #...    DCD    60451
        0x080030e0:    80230070    p.#.    DCD    2149777520
        0x080030e4:    00003c00    .<..    DCD    15360
        0x080030e8:    20000020     ..     DCD    536870944
        0x080030ec:    00000000    ....    DCD    0
        0x080030f0:    00000000    ....    DCD    0
        0x080030f4:    38000000    ...8    DCD    939524096
        0x080030f8:    38200008    .. 8    DCD    941621256
        0x080030fc:    00f82000    . ..    DCD    16261120
        0x08003100:    2f00e823    #../    DCD    788588579
        0x08003104:    083e0088    ..>.    DCD    138281096
        0x08003108:    00083800    .8..    DCD    538624
        0x0800310c:    00001820     ...    DCD    6176
        0x08003110:    00000070    p...    DCD    112
        0x08003114:    00000000    ....    DCD    0
        0x08003118:    00000000    ....    DCD    0
        0x0800311c:    00000000    ....    DCD    0
        0x08003120:    00000000    ....    DCD    0
        0x08003124:    14000008    ....    DCD    335544328
        0x08003128:    fcf71f00    ....    DCD    4244053760
        0x0800312c:    20060030    0..     DCD    537264176
        0x08003130:    00000200    ....    DCD    512
        0x08003134:    00000000    ....    DCD    0
        0x08003138:    00000000    ....    DCD    0
        0x0800313c:    00000000    ....    DCD    0
        0x08003140:    00000000    ....    DCD    0
        0x08003144:    00000000    ....    DCD    0
        0x08003148:    ffff0000    ....    DCD    4294901760
        0x0800314c:    000000ff    ....    DCD    255
        0x08003150:    00000000    ....    DCD    0
        0x08003154:    00000000    ....    DCD    0
        0x08003158:    00000000    ....    DCD    0
        0x0800315c:    00000000    ....    DCD    0
        0x08003160:    00200000    .. .    DCD    2097152
        0x08003164:    06003002    .0..    DCD    100675586
        0x08003168:    00fcf71f    ....    DCD    16578335
        0x0800316c:    08000014    ....    DCD    134217748
        0x08003170:    00000000    ....    DCD    0
        0x08003174:    00000000    ....    DCD    0
        0x08003178:    00000000    ....    DCD    0
        0x0800317c:    00000000    ....    DCD    0
        0x08003180:    18000000    ....    DCD    402653184
        0x08003184:    00600000    ..`.    DCD    6291456
        0x08003188:    00004000    .@..    DCD    16384
        0x0800318c:    20000040    @..     DCD    536870976
        0x08003190:    00100000    ....    DCD    1048576
        0x08003194:    00000800    ....    DCD    2048
        0x08003198:    04000004    ....    DCD    67108868
        0x0800319c:    000c0000    ....    DCD    786432
        0x080031a0:    00001000    ....    DCD    4096
    .constdata
    uc_hextab
        0x080031a4:    33323130    0123    DCD    858927408
        0x080031a8:    37363534    4567    DCD    926299444
        0x080031ac:    42413938    89AB    DCD    1111570744
        0x080031b0:    46454443    CDEF    DCD    1178944579
        0x080031b4:    00583040    @0X.    DCD    5779520
    lc_hextab
        0x080031b8:    33323130    0123    DCD    858927408
        0x080031bc:    37363534    4567    DCD    926299444
        0x080031c0:    62613938    89ab    DCD    1650538808
        0x080031c4:    66656463    cdef    DCD    1717920867
        0x080031c8:    00783040    @0x.    DCD    7876672
    .constdata
    maptable
        0x080031cc:    08000004    ....    DCD    134217732
        0x080031d0:    00000000    ....    DCD    0
        0x080031d4:    02000000    ....    DCD    33554432
        0x080031d8:    00000100    ....    DCD    256
        0x080031dc:    00000010    ....    DCD    16
    Region$$Table$$Base
        0x080031e0:    08003200    .2..    DCD    134230528
        0x080031e4:    20000000    ...     DCD    536870912
        0x080031e8:    0000000c    ....    DCD    12
        0x080031ec:    08000180    ....    DCD    134218112
        0x080031f0:    0800320c    .2..    DCD    134230540
        0x080031f4:    2000000c    ...     DCD    536870924
        0x080031f8:    00000674    t...    DCD    1652
        0x080031fc:    0800019c    ....    DCD    134218140
    Region$$Table$$Limit

** Section #2 'RW_IRAM1' (SHT_PROGBITS) [SHF_ALLOC + SHF_WRITE]
    Size   : 12 bytes (alignment 4)
    Address: 0x20000000


** Section #3 'RW_IRAM1' (SHT_NOBITS) [SHF_ALLOC + SHF_WRITE]
    Size   : 1652 bytes (alignment 8)
    Address: 0x2000000c


** Section #4 '.debug_abbrev' (SHT_PROGBITS)
    Size   : 1476 bytes


** Section #5 '.debug_frame' (SHT_PROGBITS)
    Size   : 1984 bytes


** Section #6 '.debug_info' (SHT_PROGBITS)
    Size   : 140268 bytes


** Section #7 '.debug_line' (SHT_PROGBITS)
    Size   : 8264 bytes


** Section #8 '.debug_loc' (SHT_PROGBITS)
    Size   : 2048 bytes


** Section #9 '.debug_macinfo' (SHT_PROGBITS)
    Size   : 19716 bytes


** Section #10 '.debug_pubnames' (SHT_PROGBITS)
    Size   : 1473 bytes


** Section #11 '.symtab' (SHT_SYMTAB)
    Size   : 8464 bytes (alignment 4)
    String table #12 '.strtab'
    Last local symbol no. 332


** Section #12 '.strtab' (SHT_STRTAB)
    Size   : 10576 bytes


** Section #13 '.note' (SHT_NOTE)
    Size   : 28 bytes (alignment 4)


** Section #14 '.comment' (SHT_PROGBITS)
    Size   : 38536 bytes


** Section #15 '.shstrtab' (SHT_STRTAB)
    Size   : 156 bytes


